ARM GAS  /tmp/ccQZ2Ehj.s 			page 1


   1              		.cpu cortex-m3
   2              		.arch armv7-m
   3              		.fpu softvfp
   4              		.eabi_attribute 20, 1
   5              		.eabi_attribute 21, 1
   6              		.eabi_attribute 23, 3
   7              		.eabi_attribute 24, 1
   8              		.eabi_attribute 25, 1
   9              		.eabi_attribute 26, 1
  10              		.eabi_attribute 30, 4
  11              		.eabi_attribute 34, 1
  12              		.eabi_attribute 18, 4
  13              		.file	"intrr_event.c"
  14              		.text
  15              	.Ltext0:
  16              		.cfi_sections	.debug_frame
  17              		.file 1 "src/drivers/intrr_event.c"
  18              		.align	1
  19              		.global	DMA1_Channel1_IRQHandler
  20              		.syntax unified
  21              		.thumb
  22              		.thumb_func
  23              		.type	DMA1_Channel1_IRQHandler, %function
  24              	DMA1_Channel1_IRQHandler:
  25              	.LFB63:
   1:src/drivers/intrr_event.c **** /**
   2:src/drivers/intrr_event.c ****  * @file    intrr_event.c
   3:src/drivers/intrr_event.c ****  * @brief   DMA interrupt implementation for STM32F103
   4:src/drivers/intrr_event.c ****  * @author  Umesh Puri
   5:src/drivers/intrr_event.c ****  * @date    2025-06-02
   6:src/drivers/intrr_event.c ****  * @version 1.0
   7:src/drivers/intrr_event.c ****  *
   8:src/drivers/intrr_event.c ****  * This file implements a DMA interrupt. It includes logic to manage ADC data transfer,
   9:src/drivers/intrr_event.c ****  * buffer filling, and LED signaling on transfer completion.
  10:src/drivers/intrr_event.c ****  * 
  11:src/drivers/intrr_event.c ****  * @license MIT License
  12:src/drivers/intrr_event.c ****  * Copyright (c) 2025 Umesh
  13:src/drivers/intrr_event.c ****  */
  14:src/drivers/intrr_event.c **** 
  15:src/drivers/intrr_event.c **** 
  16:src/drivers/intrr_event.c **** #include "ledconf.h"
  17:src/drivers/intrr_event.c **** #include "adc.h"
  18:src/drivers/intrr_event.c **** 
  19:src/drivers/intrr_event.c **** int16_t *pADC_BUFF = adc_buffer; // assign a pointer to the buffer array
  20:src/drivers/intrr_event.c **** 
  21:src/drivers/intrr_event.c **** void DMA1_Channel1_IRQHandler(void)
  22:src/drivers/intrr_event.c **** {
  26              		.loc 1 22 1 view -0
  27              		.cfi_startproc
  28              		@ args = 0, pretend = 0, frame = 0
  29              		@ frame_needed = 0, uses_anonymous_args = 0
  23:src/drivers/intrr_event.c ****     if ((DMA1->ISR & DMA_ISR_TCIF1)) // Transfer complete flag for channel 1
  30              		.loc 1 23 5 view .LVU1
  22:src/drivers/intrr_event.c ****     if ((DMA1->ISR & DMA_ISR_TCIF1)) // Transfer complete flag for channel 1
  31              		.loc 1 22 1 is_stmt 0 view .LVU2
  32 0000 38B5     		push	{r3, r4, r5, lr}
  33              		.cfi_def_cfa_offset 16
ARM GAS  /tmp/ccQZ2Ehj.s 			page 2


  34              		.cfi_offset 3, -16
  35              		.cfi_offset 4, -12
  36              		.cfi_offset 5, -8
  37              		.cfi_offset 14, -4
  38              		.loc 1 23 14 view .LVU3
  39 0002 0E4B     		ldr	r3, .L8
  40 0004 1B68     		ldr	r3, [r3]
  41              		.loc 1 23 8 view .LVU4
  42 0006 9B07     		lsls	r3, r3, #30
  43 0008 0FD5     		bpl	.L1
  24:src/drivers/intrr_event.c ****     {
  25:src/drivers/intrr_event.c **** 
  26:src/drivers/intrr_event.c ****         if (pADC_BUFF <= &adc_buffer[767])
  44              		.loc 1 26 9 is_stmt 1 view .LVU5
  45              		.loc 1 26 23 is_stmt 0 view .LVU6
  46 000a 0D4D     		ldr	r5, .L8+4
  47              		.loc 1 26 12 view .LVU7
  48 000c 0D4C     		ldr	r4, .L8+8
  49              		.loc 1 26 23 view .LVU8
  50 000e 2B68     		ldr	r3, [r5]
  51              		.loc 1 26 12 view .LVU9
  52 0010 A342     		cmp	r3, r4
  53 0012 0BD8     		bhi	.L3
  27:src/drivers/intrr_event.c ****         {
  28:src/drivers/intrr_event.c **** 
  29:src/drivers/intrr_event.c ****             *pADC_BUFF = adc_val;
  54              		.loc 1 29 13 is_stmt 1 view .LVU10
  55              		.loc 1 29 24 is_stmt 0 view .LVU11
  56 0014 0C4A     		ldr	r2, .L8+12
  57 0016 1288     		ldrh	r2, [r2]
  58 0018 1A80     		strh	r2, [r3]	@ movhi
  30:src/drivers/intrr_event.c ****             led_state(); // change led state
  59              		.loc 1 30 13 is_stmt 1 view .LVU12
  60 001a FFF7FEFF 		bl	led_state
  61              	.LVL0:
  31:src/drivers/intrr_event.c ****             pADC_BUFF++;
  62              		.loc 1 31 13 view .LVU13
  63              		.loc 1 31 22 is_stmt 0 view .LVU14
  64 001e 2C68     		ldr	r4, [r5]
  65 0020 0234     		adds	r4, r4, #2
  66              	.L4:
  32:src/drivers/intrr_event.c ****         }
  33:src/drivers/intrr_event.c ****         else
  34:src/drivers/intrr_event.c ****         {
  35:src/drivers/intrr_event.c ****             stop_process(); // stop buffer filling and process
  36:src/drivers/intrr_event.c ****             ACC_COMP = true;
  37:src/drivers/intrr_event.c ****             pADC_BUFF = adc_buffer; // reset the pointer
  38:src/drivers/intrr_event.c ****         }
  39:src/drivers/intrr_event.c ****         DMA1->IFCR = DMA_IFCR_CTCIF1; // Clear the transfer complete flag
  67              		.loc 1 39 20 view .LVU15
  68 0022 0222     		movs	r2, #2
  69 0024 054B     		ldr	r3, .L8
  31:src/drivers/intrr_event.c ****             pADC_BUFF++;
  70              		.loc 1 31 22 view .LVU16
  71 0026 2C60     		str	r4, [r5]
  72              		.loc 1 39 9 is_stmt 1 view .LVU17
  73              		.loc 1 39 20 is_stmt 0 view .LVU18
ARM GAS  /tmp/ccQZ2Ehj.s 			page 3


  74 0028 5A60     		str	r2, [r3, #4]
  75              	.L1:
  40:src/drivers/intrr_event.c ****     }
  41:src/drivers/intrr_event.c **** }
  76              		.loc 1 41 1 view .LVU19
  77 002a 38BD     		pop	{r3, r4, r5, pc}
  78              	.L3:
  35:src/drivers/intrr_event.c ****             ACC_COMP = true;
  79              		.loc 1 35 13 is_stmt 1 view .LVU20
  80 002c FFF7FEFF 		bl	stop_process
  81              	.LVL1:
  36:src/drivers/intrr_event.c ****             pADC_BUFF = adc_buffer; // reset the pointer
  82              		.loc 1 36 13 view .LVU21
  36:src/drivers/intrr_event.c ****             pADC_BUFF = adc_buffer; // reset the pointer
  83              		.loc 1 36 22 is_stmt 0 view .LVU22
  84 0030 0122     		movs	r2, #1
  85 0032 064B     		ldr	r3, .L8+16
  86 0034 A4F2FE54 		subw	r4, r4, #1534
  87 0038 1A70     		strb	r2, [r3]
  37:src/drivers/intrr_event.c ****         }
  88              		.loc 1 37 13 is_stmt 1 view .LVU23
  89 003a F2E7     		b	.L4
  90              	.L9:
  91              		.align	2
  92              	.L8:
  93 003c 00000240 		.word	1073872896
  94 0040 00000000 		.word	.LANCHOR0
  95 0044 FE050000 		.word	adc_buffer+1534
  96 0048 00000000 		.word	adc_val
  97 004c 00000000 		.word	ACC_COMP
  98              		.cfi_endproc
  99              	.LFE63:
 100              		.size	DMA1_Channel1_IRQHandler, .-DMA1_Channel1_IRQHandler
 101              		.global	pADC_BUFF
 102              		.data
 103              		.align	2
 104              		.set	.LANCHOR0,. + 0
 105              		.type	pADC_BUFF, %object
 106              		.size	pADC_BUFF, 4
 107              	pADC_BUFF:
 108 0000 00000000 		.word	adc_buffer
 109              		.text
 110              	.Letext0:
 111              		.file 2 "/opt/arm-none-eabi/arm-none-eabi/include/machine/_default_types.h"
 112              		.file 3 "/opt/arm-none-eabi/arm-none-eabi/include/sys/_stdint.h"
 113              		.file 4 "common/include/stm32f103xb.h"
 114              		.file 5 "src/drivers/adc.h"
 115              		.file 6 "src/drivers/ledconf.h"