ARM GAS  /tmp/cctFGGIe.s 			page 1


   1              		.cpu cortex-m3
   2              		.arch armv7-m
   3              		.fpu softvfp
   4              		.eabi_attribute 20, 1
   5              		.eabi_attribute 21, 1
   6              		.eabi_attribute 23, 3
   7              		.eabi_attribute 24, 1
   8              		.eabi_attribute 25, 1
   9              		.eabi_attribute 26, 1
  10              		.eabi_attribute 30, 4
  11              		.eabi_attribute 34, 1
  12              		.eabi_attribute 18, 4
  13              		.file	"main.c"
  14              		.text
  15              	.Ltext0:
  16              		.cfi_sections	.debug_frame
  17              		.file 1 "src/main.c"
  18              		.global	__aeabi_i2f
  19              		.global	__aeabi_fsub
  20              		.global	__aeabi_fmul
  21              		.global	__aeabi_fadd
  22              		.global	__aeabi_fdiv
  23              		.global	__aeabi_ui2f
  24              		.align	1
  25              		.global	DSP_process
  26              		.syntax unified
  27              		.thumb
  28              		.thumb_func
  29              		.type	DSP_process, %function
  30              	DSP_process:
  31              	.LFB122:
   1:src/main.c    **** /**
   2:src/main.c    ****  * @file    main.c
   3:src/main.c    ****  * @brief   Test application entry point for connectHeart peripheral and DSP library STM32 project
   4:src/main.c    ****  * @author  Umesh Puri
   5:src/main.c    ****  * @date    2025-06-02
   6:src/main.c    ****  * @version 1.0
   7:src/main.c    ****  *
   8:src/main.c    ****  * This is a simple test main file for initial development and verification
   9:src/main.c    ****  * of connectHeart peripherals and DSP library functionality on STM32F103.
  10:src/main.c    ****  *
  11:src/main.c    ****  * @license MIT License
  12:src/main.c    ****  * Copyright (c) 2025 Umesh
  13:src/main.c    ****  */
  14:src/main.c    **** 
  15:src/main.c    **** #include "stm32f1xx.h"
  16:src/main.c    **** #include "core_cm3.h"
  17:src/main.c    **** #include "arm_math.h"
  18:src/main.c    **** #include "string.h"
  19:src/main.c    **** #include <stdint.h>
  20:src/main.c    **** #include <stdio.h>
  21:src/main.c    **** 
  22:src/main.c    **** #include "HSE_CLK.h"
  23:src/main.c    **** #include "delay.h"
  24:src/main.c    **** #include "spi.h"
  25:src/main.c    **** #include "adc.h"
  26:src/main.c    **** #include "ledconf.h"
ARM GAS  /tmp/cctFGGIe.s 			page 2


  27:src/main.c    **** #include "hamming.h"
  28:src/main.c    **** 
  29:src/main.c    **** #define FFT_SIZE 512
  30:src/main.c    **** #define PPG_SAMP (&adc_buffer[0])
  31:src/main.c    **** #define SPO2_IR (&adc_buffer[1])
  32:src/main.c    **** #define SPO2_RED (&adc_buffer[2])
  33:src/main.c    **** 
  34:src/main.c    **** int __errno = 0;
  35:src/main.c    **** 
  36:src/main.c    **** int16_t *pPPG_Sample = PPG_SAMP; // pointer for Green
  37:src/main.c    **** int16_t *pSPO2_IR = SPO2_IR;     // pointer for IR
  38:src/main.c    **** int16_t *pSPO2_RED = SPO2_RED;   // pointer for RED
  39:src/main.c    **** q15_t input[FFT_SIZE * 2];
  40:src/main.c    **** 
  41:src/main.c    **** static q15_t mag[FFT_SIZE] = {0};
  42:src/main.c    **** 
  43:src/main.c    **** q15_t maxVal = 0;
  44:src/main.c    **** uint32_t maxIndex = 0;
  45:src/main.c    **** q15_t noisefloor = 0;
  46:src/main.c    **** volatile q15_t confidence = 0;
  47:src/main.c    **** volatile float32_t hr_values = 0.0f;
  48:src/main.c    **** q15_t sampleMean = 0;
  49:src/main.c    **** 
  50:src/main.c    **** arm_cfft_radix2_instance_q15 fft_inst;
  51:src/main.c    **** 
  52:src/main.c    **** void DSP_process(void); // DSP_process function prototype
  53:src/main.c    **** 
  54:src/main.c    **** static float32_t quinns_second_estimator_q15(q15_t *input, uint32_t k);
  55:src/main.c    **** 
  56:src/main.c    **** int main(void)
  57:src/main.c    **** {
  58:src/main.c    ****    // Peripheral and process initialization
  59:src/main.c    ****    X_Clock_Init();  // 72MHz CLK
  60:src/main.c    ****    spi_init();      // SPI initialization
  61:src/main.c    ****    TIM2_Init();     // TIM2 Delay initialization
  62:src/main.c    ****    adc_init_cont(); // ADC  initialization
  63:src/main.c    ****    led_init();      // LEDs initialization
  64:src/main.c    **** 
  65:src/main.c    ****    arm_cfft_radix2_init_q15(&fft_inst, FFT_SIZE, 0, 1); // forward FFT
  66:src/main.c    **** 
  67:src/main.c    ****    while (1)
  68:src/main.c    ****    {
  69:src/main.c    ****       if (ACC_COMP)
  70:src/main.c    ****       {
  71:src/main.c    **** 
  72:src/main.c    ****          ACC_COMP = false;
  73:src/main.c    ****          DSP_process(); // call DSP_process
  74:src/main.c    **** 
  75:src/main.c    ****          // after completion of DSP start the process again
  76:src/main.c    ****          start_process();
  77:src/main.c    ****       }
  78:src/main.c    ****       else
  79:src/main.c    ****       {
  80:src/main.c    **** 
  81:src/main.c    ****          _us_delay(50);
  82:src/main.c    ****          spi_transmit(hr_values, confidence); // display Heart Rate and confidence
  83:src/main.c    ****          _us_delay(50);
ARM GAS  /tmp/cctFGGIe.s 			page 3


  84:src/main.c    ****       }
  85:src/main.c    ****    }
  86:src/main.c    ****    return 0;
  87:src/main.c    **** }
  88:src/main.c    **** 
  89:src/main.c    **** void DSP_process(void)
  90:src/main.c    **** {
  32              		.loc 1 90 1 view -0
  33              		.cfi_startproc
  34              		@ args = 0, pretend = 0, frame = 0
  35              		@ frame_needed = 0, uses_anonymous_args = 0
  91:src/main.c    **** 
  92:src/main.c    ****    for (uint16_t i = 0; i < FFT_SIZE / 2; i++)
  36              		.loc 1 92 4 view .LVU1
  37              	.LBB2:
  38              		.loc 1 92 9 view .LVU2
  39              	.LVL0:
  40              		.loc 1 92 27 discriminator 1 view .LVU3
  41              	.LBE2:
  90:src/main.c    **** 
  42              		.loc 1 90 1 is_stmt 0 view .LVU4
  43 0000 2DE9F84F 		push	{r3, r4, r5, r6, r7, r8, r9, r10, fp, lr}
  44              		.cfi_def_cfa_offset 40
  45              		.cfi_offset 3, -40
  46              		.cfi_offset 4, -36
  47              		.cfi_offset 5, -32
  48              		.cfi_offset 6, -28
  49              		.cfi_offset 7, -24
  50              		.cfi_offset 8, -20
  51              		.cfi_offset 9, -16
  52              		.cfi_offset 10, -12
  53              		.cfi_offset 11, -8
  54              		.cfi_offset 14, -4
  90:src/main.c    **** 
  55              		.loc 1 90 1 view .LVU5
  56 0004 0023     		movs	r3, #0
  57 0006 7C4E     		ldr	r6, .L27
  58              	.LBB3:
  93:src/main.c    ****    {
  94:src/main.c    ****       input[i << 1] = (adc_buffer[i * 3]);
  95:src/main.c    ****       input[(i << 1) + 1] = 0;
  59              		.loc 1 95 27 view .LVU6
  60 0008 1946     		mov	r1, r3
  61              	.LBE3:
  90:src/main.c    **** 
  62              		.loc 1 90 1 view .LVU7
  63 000a 3246     		mov	r2, r6
  64 000c 3446     		mov	r4, r6
  65              	.LBB4:
  94:src/main.c    ****       input[(i << 1) + 1] = 0;
  66              		.loc 1 94 34 view .LVU8
  67 000e 7B4D     		ldr	r5, .L27+4
  68              	.LVL1:
  69              	.L2:
  94:src/main.c    ****       input[(i << 1) + 1] = 0;
  70              		.loc 1 94 7 is_stmt 1 view .LVU9
  94:src/main.c    ****       input[(i << 1) + 1] = 0;
ARM GAS  /tmp/cctFGGIe.s 			page 4


  71              		.loc 1 94 34 is_stmt 0 view .LVU10
  72 0010 35F81300 		ldrh	r0, [r5, r3, lsl #1]
  92:src/main.c    ****    {
  73              		.loc 1 92 27 discriminator 1 view .LVU11
  74 0014 0333     		adds	r3, r3, #3
  75              	.LVL2:
  92:src/main.c    ****    {
  76              		.loc 1 92 27 discriminator 1 view .LVU12
  77 0016 B3F5407F 		cmp	r3, #768
  94:src/main.c    ****       input[(i << 1) + 1] = 0;
  78              		.loc 1 94 21 view .LVU13
  79 001a 1080     		strh	r0, [r2]	@ movhi
  80              		.loc 1 95 7 is_stmt 1 view .LVU14
  81              		.loc 1 95 27 is_stmt 0 view .LVU15
  82 001c 5180     		strh	r1, [r2, #2]	@ movhi
  92:src/main.c    ****    {
  83              		.loc 1 92 44 is_stmt 1 discriminator 3 view .LVU16
  84              	.LVL3:
  92:src/main.c    ****    {
  85              		.loc 1 92 27 discriminator 1 view .LVU17
  86 001e 02F10402 		add	r2, r2, #4
  87 0022 F5D1     		bne	.L2
  88              	.LBE4:
  96:src/main.c    ****    }
  97:src/main.c    **** 
  98:src/main.c    ****    // ZERO PADDING to 512
  99:src/main.c    ****    memset(&input[FFT_SIZE], 0, ((FFT_SIZE)) * sizeof(q15_t));
  89              		.loc 1 99 4 view .LVU18
  90              	.LBB5:
  91              	.LBB6:
 100:src/main.c    ****    // get mean of input only 256 * 2 interleved position
 101:src/main.c    ****    arm_mean_q15(&input[0], FFT_SIZE, &sampleMean);
 102:src/main.c    **** 
 103:src/main.c    ****    // remove dc component
 104:src/main.c    ****    for (uint16_t i = 0; i < FFT_SIZE; i++)
 105:src/main.c    ****    {
 106:src/main.c    ****       input[i << 1] = (i < FFT_SIZE / 2) ? input[i << 1] - (sampleMean << 1) : 0; // compensate the
  92              		.loc 1 106 72 is_stmt 0 discriminator 1 view .LVU19
  93 0024 0025     		movs	r5, #0
  94              	.LBE6:
  95              	.LBE5:
  99:src/main.c    ****    // get mean of input only 256 * 2 interleved position
  96              		.loc 1 99 4 view .LVU20
  97 0026 4FF48062 		mov	r2, #1024
  98 002a 0021     		movs	r1, #0
  99 002c 7448     		ldr	r0, .L27+8
 100 002e FFF7FEFF 		bl	memset
 101              	.LVL4:
 101:src/main.c    **** 
 102              		.loc 1 101 4 is_stmt 1 view .LVU21
 103 0032 744A     		ldr	r2, .L27+12
 104 0034 4FF40071 		mov	r1, #512
 105 0038 A2F50060 		sub	r0, r2, #2048
 106 003c FFF7FEFF 		bl	arm_mean_q15
 107              	.LVL5:
 104:src/main.c    ****    {
 108              		.loc 1 104 4 view .LVU22
ARM GAS  /tmp/cctFGGIe.s 			page 5


 109              	.LBB13:
 104:src/main.c    ****    {
 110              		.loc 1 104 9 view .LVU23
 104:src/main.c    ****    {
 111              		.loc 1 104 27 discriminator 1 view .LVU24
 112              	.LBB10:
 113              		.loc 1 106 21 is_stmt 0 discriminator 2 view .LVU25
 114 0040 2846     		mov	r0, r5
 115              		.loc 1 106 72 discriminator 1 view .LVU26
 116 0042 B4F80028 		ldrh	r2, [r4, #2048]
 117 0046 7049     		ldr	r1, .L27+16
 118 0048 5200     		lsls	r2, r2, #1
 119 004a 92B2     		uxth	r2, r2
 120              	.LVL6:
 121              	.L4:
 122              		.loc 1 106 7 is_stmt 1 view .LVU27
 123              		.loc 1 106 21 is_stmt 0 view .LVU28
 124 004c FF2D     		cmp	r5, #255
 125              		.loc 1 106 21 discriminator 2 view .LVU29
 126 004e 8CBF     		ite	hi
 127 0050 0023     		movhi	r3, #0
 107:src/main.c    ****       int32_t temp = (int32_t)input[i << 1] * hamming[i];                         // Q15 * Q15 = Q3
 128              		.loc 1 107 7 is_stmt 1 view .LVU30
 106:src/main.c    ****       int32_t temp = (int32_t)input[i << 1] * hamming[i];                         // Q15 * Q15 = Q3
 129              		.loc 1 106 58 is_stmt 0 discriminator 1 view .LVU31
 130 0052 3388     		ldrhls	r3, [r6]
 131              		.loc 1 107 54 view .LVU32
 132 0054 31F9027B 		ldrsh	r7, [r1], #2
 106:src/main.c    ****       int32_t temp = (int32_t)input[i << 1] * hamming[i];                         // Q15 * Q15 = Q3
 133              		.loc 1 106 58 discriminator 1 view .LVU33
 134 0058 9CBF     		itt	ls
 135 005a 9B1A     		subls	r3, r3, r2
 106:src/main.c    ****       int32_t temp = (int32_t)input[i << 1] * hamming[i];                         // Q15 * Q15 = Q3
 136              		.loc 1 106 21 discriminator 1 view .LVU34
 137 005c 1BB2     		sxthls	r3, r3
 138              	.LVL7:
 108:src/main.c    ****       input[i << 1] = (q15_t)__SSAT((temp >> 15), 16);                            // Back to Q15 an
 139              		.loc 1 108 7 is_stmt 1 view .LVU35
 140              	.LBB7:
 141              		.loc 1 108 30 view .LVU36
 142              		.loc 1 108 30 view .LVU37
 143              	.LBE7:
 107:src/main.c    ****       int32_t temp = (int32_t)input[i << 1] * hamming[i];                         // Q15 * Q15 = Q3
 144              		.loc 1 107 15 is_stmt 0 view .LVU38
 145 005e 7B43     		muls	r3, r7, r3
 146              	.LVL8:
 107:src/main.c    ****       int32_t temp = (int32_t)input[i << 1] * hamming[i];                         // Q15 * Q15 = Q3
 147              		.loc 1 107 15 view .LVU39
 148              	.LBE10:
 104:src/main.c    ****    {
 149              		.loc 1 104 27 discriminator 1 view .LVU40
 150 0060 0135     		adds	r5, r5, #1
 151              	.LVL9:
 104:src/main.c    ****    {
 152              		.loc 1 104 27 discriminator 1 view .LVU41
 153 0062 B5F5007F 		cmp	r5, #512
 154              	.LBB11:
ARM GAS  /tmp/cctFGGIe.s 			page 6


 155              	.LBB8:
 156              		.loc 1 108 30 view .LVU42
 157 0066 4FEAE333 		asr	r3, r3, #15
 158              	.LBE8:
 109:src/main.c    ****       input[(i << 1) + 1] = 0;
 159              		.loc 1 109 27 view .LVU43
 160 006a 7080     		strh	r0, [r6, #2]	@ movhi
 161              	.LBB9:
 108:src/main.c    ****       input[i << 1] = (q15_t)__SSAT((temp >> 15), 16);                            // Back to Q15 an
 162              		.loc 1 108 30 view .LVU44
 163              		.syntax unified
 164              	@ 108 "src/main.c" 1
 165 006c 03F30F03 		ssat r3, #16, r3
 166              	@ 0 "" 2
 167              	.LVL10:
 108:src/main.c    ****       input[i << 1] = (q15_t)__SSAT((temp >> 15), 16);                            // Back to Q15 an
 168              		.loc 1 108 30 is_stmt 1 view .LVU45
 169              		.thumb
 170              		.syntax unified
 171              	.LBE9:
 172              	.LBE11:
 104:src/main.c    ****    {
 173              		.loc 1 104 27 is_stmt 0 discriminator 1 view .LVU46
 174 0070 06F10406 		add	r6, r6, #4
 175              	.LBB12:
 108:src/main.c    ****       input[i << 1] = (q15_t)__SSAT((temp >> 15), 16);                            // Back to Q15 an
 176              		.loc 1 108 23 view .LVU47
 177 0074 26F8043C 		strh	r3, [r6, #-4]	@ movhi
 178              		.loc 1 109 7 is_stmt 1 view .LVU48
 179              	.LBE12:
 104:src/main.c    ****    {
 180              		.loc 1 104 40 discriminator 2 view .LVU49
 181              	.LVL11:
 104:src/main.c    ****    {
 182              		.loc 1 104 27 discriminator 1 view .LVU50
 183 0078 E8D1     		bne	.L4
 184              	.LBE13:
 110:src/main.c    ****    }
 111:src/main.c    **** 
 112:src/main.c    ****    arm_shift_q15(input, 8, input, FFT_SIZE * 2);
 185              		.loc 1 112 4 view .LVU51
 186 007a 5F4A     		ldr	r2, .L27
 187 007c 4FF48063 		mov	r3, #1024
 188              	.LVL12:
 189              		.loc 1 112 4 is_stmt 0 view .LVU52
 190 0080 1046     		mov	r0, r2
 191 0082 0821     		movs	r1, #8
 192 0084 FFF7FEFF 		bl	arm_shift_q15
 193              	.LVL13:
 113:src/main.c    ****    arm_cfft_radix2_q15(&fft_inst, input);
 194              		.loc 1 113 4 is_stmt 1 view .LVU53
 195 0088 5B49     		ldr	r1, .L27
 196 008a 01F60400 		addw	r0, r1, #2052
 197 008e FFF7FEFF 		bl	arm_cfft_radix2_q15
 198              	.LVL14:
 114:src/main.c    ****    arm_cmplx_mag_q15(input, mag, FFT_SIZE);
 199              		.loc 1 114 4 view .LVU54
ARM GAS  /tmp/cctFGGIe.s 			page 7


 200 0092 5E49     		ldr	r1, .L27+20
 201 0094 2A46     		mov	r2, r5
 202 0096 A1F61400 		subw	r0, r1, #2068
 203 009a FFF7FEFF 		bl	arm_cmplx_mag_q15
 204              	.LVL15:
 115:src/main.c    **** 
 116:src/main.c    ****    // get noise floor before removing high bins up from FFT_SIZE/2 since we really dont have true s
 117:src/main.c    ****    arm_mean_q15(&mag[0], FFT_SIZE / 2, &noisefloor);
 205              		.loc 1 117 4 view .LVU55
 206 009e 5C4A     		ldr	r2, .L27+24
 207 00a0 4FF48071 		mov	r1, #256
 208 00a4 A2F58060 		sub	r0, r2, #1024
 209 00a8 FFF7FEFF 		bl	arm_mean_q15
 210              	.LVL16:
 118:src/main.c    **** 
 119:src/main.c    ****    // remove noise component
 120:src/main.c    ****    for (uint16_t i = 0; i < FFT_SIZE; i++)
 211              		.loc 1 120 4 view .LVU56
 212              	.LBB14:
 213              		.loc 1 120 9 view .LVU57
 214              		.loc 1 120 27 discriminator 1 view .LVU58
 215 00ac 5749     		ldr	r1, .L27+20
 121:src/main.c    ****    {
 122:src/main.c    ****       mag[i] = (i < FFT_SIZE / 2) ? mag[i] - noisefloor : 0;
 216              		.loc 1 122 44 is_stmt 0 discriminator 1 view .LVU59
 217 00ae 0022     		movs	r2, #0
 218 00b0 0846     		mov	r0, r1
 219 00b2 B4F8145C 		ldrh	r5, [r4, #3092]
 220              	.LVL17:
 221              	.L6:
 222              		.loc 1 122 7 is_stmt 1 view .LVU60
 223              		.loc 1 122 14 is_stmt 0 view .LVU61
 224 00b6 FF2A     		cmp	r2, #255
 225              		.loc 1 122 14 discriminator 2 view .LVU62
 226 00b8 8CBF     		ite	hi
 227 00ba 0023     		movhi	r3, #0
 228              		.loc 1 122 44 discriminator 1 view .LVU63
 229 00bc 0B88     		ldrhls	r3, [r1]
 120:src/main.c    ****    {
 230              		.loc 1 120 27 discriminator 1 view .LVU64
 231 00be 02F10102 		add	r2, r2, #1
 232              	.LVL18:
 233              		.loc 1 122 44 discriminator 1 view .LVU65
 234 00c2 9CBF     		itt	ls
 235 00c4 5B1B     		subls	r3, r3, r5
 236              		.loc 1 122 14 discriminator 1 view .LVU66
 237 00c6 1BB2     		sxthls	r3, r3
 120:src/main.c    ****    {
 238              		.loc 1 120 27 discriminator 1 view .LVU67
 239 00c8 B2F5007F 		cmp	r2, #512
 240              		.loc 1 122 14 discriminator 4 view .LVU68
 241 00cc 21F8023B 		strh	r3, [r1], #2	@ movhi
 120:src/main.c    ****    {
 242              		.loc 1 120 40 is_stmt 1 discriminator 2 view .LVU69
 243              	.LVL19:
 120:src/main.c    ****    {
 244              		.loc 1 120 27 discriminator 1 view .LVU70
ARM GAS  /tmp/cctFGGIe.s 			page 8


 245 00d0 F1D1     		bne	.L6
 246              	.LBE14:
 123:src/main.c    ****    }
 124:src/main.c    **** 
 125:src/main.c    ****    // Bandpass filtering: zero out low and high frequencies
 126:src/main.c    ****    memset(&mag[0], 0, 4 * sizeof(q15_t));                // zero bins from 0 to 4
 247              		.loc 1 126 4 view .LVU71
 248 00d2 0025     		movs	r5, #0
 127:src/main.c    ****    memset(&mag[50], 0, (FFT_SIZE - 50) * sizeof(q15_t)); // zero bins 50to end
 249              		.loc 1 127 4 is_stmt 0 view .LVU72
 250 00d4 4FF46772 		mov	r2, #924
 251 00d8 2946     		mov	r1, r5
 126:src/main.c    ****    memset(&mag[50], 0, (FFT_SIZE - 50) * sizeof(q15_t)); // zero bins 50to end
 252              		.loc 1 126 4 view .LVU73
 253 00da C4F81458 		str	r5, [r4, #2068]	@ unaligned
 254 00de 4560     		str	r5, [r0, #4]	@ unaligned
 255              		.loc 1 127 4 is_stmt 1 view .LVU74
 256 00e0 4C48     		ldr	r0, .L27+28
 257 00e2 FFF7FEFF 		bl	memset
 258              	.LVL20:
 128:src/main.c    **** 
 129:src/main.c    ****    arm_max_q15(mag, FFT_SIZE / 2, &maxVal, &maxIndex);
 259              		.loc 1 129 4 view .LVU75
 260 00e6 4C4B     		ldr	r3, .L27+32
 261 00e8 4FF48071 		mov	r1, #256
 262 00ec 1A1D     		adds	r2, r3, #4
 263 00ee A3F20440 		subw	r0, r3, #1028
 264 00f2 FFF7FEFF 		bl	arm_max_q15
 265              	.LVL21:
 130:src/main.c    **** 
 131:src/main.c    ****    confidence = (noisefloor > 0) ? maxVal / noisefloor : 0;
 266              		.loc 1 131 4 view .LVU76
 267              		.loc 1 131 29 is_stmt 0 view .LVU77
 268 00f6 B4F9143C 		ldrsh	r3, [r4, #3092]
 269              		.loc 1 131 15 view .LVU78
 270 00fa AB42     		cmp	r3, r5
 271              		.loc 1 131 43 discriminator 1 view .LVU79
 272 00fc C2BF     		ittt	gt
 273 00fe B4F91C5C 		ldrshgt	r5, [r4, #3100]
 274 0102 95FBF3F5 		sdivgt	r5, r5, r3
 275              		.loc 1 131 15 discriminator 1 view .LVU80
 276 0106 2DB2     		sxthgt	r5, r5
 277              		.loc 1 131 15 discriminator 4 view .LVU81
 278 0108 A4F81E5C 		strh	r5, [r4, #3102]	@ movhi
 132:src/main.c    **** 
 133:src/main.c    ****    if (confidence < 10 || maxVal < (q15_t)300) // threshold confidence
 279              		.loc 1 133 4 is_stmt 1 view .LVU82
 280              		.loc 1 133 19 is_stmt 0 view .LVU83
 281 010c B4F81E3C 		ldrh	r3, [r4, #3102]
 282 0110 1BB2     		sxth	r3, r3
 283              		.loc 1 133 7 view .LVU84
 284 0112 092B     		cmp	r3, #9
 285 0114 04DD     		ble	.L11
 286              		.loc 1 133 24 discriminator 1 view .LVU85
 287 0116 B4F91C3C 		ldrsh	r3, [r4, #3100]
 288 011a B3F5967F 		cmp	r3, #300
 289 011e 03DA     		bge	.L9
ARM GAS  /tmp/cctFGGIe.s 			page 9


 290              	.L11:
 134:src/main.c    ****    {
 135:src/main.c    ****       hr_values = 0;
 136:src/main.c    ****       return;
 137:src/main.c    ****    }
 138:src/main.c    **** 
 139:src/main.c    ****    // Zero
 140:src/main.c    ****    if (maxIndex != 0 && maxIndex != FFT_SIZE - 1)
 141:src/main.c    ****    {
 142:src/main.c    **** 
 143:src/main.c    ****       float32_t delta, refined_freq;
 144:src/main.c    ****       float32_t mag_km1 = (mag[maxIndex - 1]);
 145:src/main.c    ****       mag_km1 = (mag_km1 <= 0) ? 0.001f : mag_km1;
 146:src/main.c    ****       float32_t mag_k = (mag[maxIndex]);
 147:src/main.c    ****       mag_k = (mag_k <= 0) ? 0.001f : mag_k;
 148:src/main.c    ****       float32_t mag_kp1 = (mag[maxIndex + 1]);
 149:src/main.c    ****       mag_kp1 = (mag_kp1 <= 0) ? 0.001f : mag_kp1;
 150:src/main.c    **** 
 151:src/main.c    ****       // delta = (mag_km1 - mag_kp1) / (2 * (mag_km1 - 2 * mag_k + mag_kp1));
 152:src/main.c    **** #if 1
 153:src/main.c    **** 
 154:src/main.c    ****       // log-parablolic interpolation
 155:src/main.c    ****       delta = 0.5f * (logf(mag_km1) - logf(mag_kp1)) / (logf(mag_km1) - 2 * logf(mag_k) + logf(mag_
 156:src/main.c    **** 
 157:src/main.c    ****       refined_freq = ((float32_t)maxIndex + delta) * 0.108f;
 158:src/main.c    ****       hr_values = (60.00f) * refined_freq;
 159:src/main.c    **** #else
 160:src/main.c    ****       // Quinn's estimator-based interpolation
 161:src/main.c    ****       delta = quinns_second_estimator_q15(input, maxIndex);
 162:src/main.c    ****       refined_freq = ((float32_t)maxIndex + delta) * 0.108f;
 163:src/main.c    ****       hr_values = 60.0f * refined_freq;
 164:src/main.c    **** #endif
 165:src/main.c    ****    }
 166:src/main.c    ****    else
 167:src/main.c    ****    {
 168:src/main.c    ****       hr_values = 0;
 291              		.loc 1 168 7 is_stmt 1 view .LVU86
 292              		.loc 1 168 17 is_stmt 0 view .LVU87
 293 0120 0023     		movs	r3, #0
 294 0122 C4F8203C 		str	r3, [r4, #3104]	@ float
 169:src/main.c    ****       return;
 295              		.loc 1 169 7 is_stmt 1 view .LVU88
 296 0126 5EE0     		b	.L1
 297              	.L9:
 140:src/main.c    ****    {
 298              		.loc 1 140 4 view .LVU89
 140:src/main.c    ****    {
 299              		.loc 1 140 17 is_stmt 0 view .LVU90
 300 0128 D4F8185C 		ldr	r5, [r4, #3096]
 140:src/main.c    ****    {
 301              		.loc 1 140 7 view .LVU91
 302 012c 002D     		cmp	r5, #0
 303 012e F7D0     		beq	.L11
 140:src/main.c    ****    {
 304              		.loc 1 140 22 discriminator 1 view .LVU92
 305 0130 40F2FF13 		movw	r3, #511
 306 0134 9D42     		cmp	r5, r3
ARM GAS  /tmp/cctFGGIe.s 			page 10


 307 0136 F3D0     		beq	.L11
 308              	.LBB15:
 143:src/main.c    ****       float32_t mag_km1 = (mag[maxIndex - 1]);
 309              		.loc 1 143 7 is_stmt 1 view .LVU93
 144:src/main.c    ****       mag_km1 = (mag_km1 <= 0) ? 0.001f : mag_km1;
 310              		.loc 1 144 7 view .LVU94
 144:src/main.c    ****       mag_km1 = (mag_km1 <= 0) ? 0.001f : mag_km1;
 311              		.loc 1 144 31 is_stmt 0 view .LVU95
 312 0138 04EB4503 		add	r3, r4, r5, lsl #1
 313 013c B3F91208 		ldrsh	r0, [r3, #2066]
 314              	.LVL22:
 145:src/main.c    ****       float32_t mag_k = (mag[maxIndex]);
 315              		.loc 1 145 7 is_stmt 1 view .LVU96
 145:src/main.c    ****       float32_t mag_k = (mag[maxIndex]);
 316              		.loc 1 145 41 is_stmt 0 view .LVU97
 317 0140 0028     		cmp	r0, #0
 318 0142 52DD     		ble	.L18
 144:src/main.c    ****       mag_km1 = (mag_km1 <= 0) ? 0.001f : mag_km1;
 319              		.loc 1 144 17 view .LVU98
 320 0144 FFF7FEFF 		bl	__aeabi_i2f
 321              	.LVL23:
 144:src/main.c    ****       mag_km1 = (mag_km1 <= 0) ? 0.001f : mag_km1;
 322              		.loc 1 144 17 view .LVU99
 323 0148 0746     		mov	r7, r0
 324              	.L12:
 325              	.LVL24:
 146:src/main.c    ****       mag_k = (mag_k <= 0) ? 0.001f : mag_k;
 326              		.loc 1 146 7 is_stmt 1 view .LVU100
 146:src/main.c    ****       mag_k = (mag_k <= 0) ? 0.001f : mag_k;
 327              		.loc 1 146 29 is_stmt 0 view .LVU101
 328 014a 04EB4503 		add	r3, r4, r5, lsl #1
 329 014e B3F91408 		ldrsh	r0, [r3, #2068]
 330              	.LVL25:
 147:src/main.c    ****       float32_t mag_kp1 = (mag[maxIndex + 1]);
 331              		.loc 1 147 7 is_stmt 1 view .LVU102
 147:src/main.c    ****       float32_t mag_kp1 = (mag[maxIndex + 1]);
 332              		.loc 1 147 37 is_stmt 0 view .LVU103
 333 0152 0028     		cmp	r0, #0
 334 0154 4BDD     		ble	.L19
 146:src/main.c    ****       mag_k = (mag_k <= 0) ? 0.001f : mag_k;
 335              		.loc 1 146 17 view .LVU104
 336 0156 FFF7FEFF 		bl	__aeabi_i2f
 337              	.LVL26:
 146:src/main.c    ****       mag_k = (mag_k <= 0) ? 0.001f : mag_k;
 338              		.loc 1 146 17 view .LVU105
 339 015a 8046     		mov	r8, r0
 340              	.L13:
 341              	.LVL27:
 148:src/main.c    ****       mag_kp1 = (mag_kp1 <= 0) ? 0.001f : mag_kp1;
 342              		.loc 1 148 7 is_stmt 1 view .LVU106
 148:src/main.c    ****       mag_kp1 = (mag_kp1 <= 0) ? 0.001f : mag_kp1;
 343              		.loc 1 148 31 is_stmt 0 view .LVU107
 344 015c 04EB4503 		add	r3, r4, r5, lsl #1
 345 0160 B3F91608 		ldrsh	r0, [r3, #2070]
 346              	.LVL28:
 149:src/main.c    **** 
 347              		.loc 1 149 7 is_stmt 1 view .LVU108
ARM GAS  /tmp/cctFGGIe.s 			page 11


 149:src/main.c    **** 
 348              		.loc 1 149 41 is_stmt 0 view .LVU109
 349 0164 0028     		cmp	r0, #0
 350 0166 45DD     		ble	.L20
 148:src/main.c    ****       mag_kp1 = (mag_kp1 <= 0) ? 0.001f : mag_kp1;
 351              		.loc 1 148 17 view .LVU110
 352 0168 FFF7FEFF 		bl	__aeabi_i2f
 353              	.LVL29:
 148:src/main.c    ****       mag_kp1 = (mag_kp1 <= 0) ? 0.001f : mag_kp1;
 354              		.loc 1 148 17 view .LVU111
 355 016c 0646     		mov	r6, r0
 356              	.L14:
 357              	.LVL30:
 155:src/main.c    **** 
 358              		.loc 1 155 7 is_stmt 1 view .LVU112
 155:src/main.c    **** 
 359              		.loc 1 155 23 is_stmt 0 view .LVU113
 360 016e 3846     		mov	r0, r7
 361 0170 FFF7FEFF 		bl	logf
 362              	.LVL31:
 363 0174 8146     		mov	r9, r0
 155:src/main.c    **** 
 364              		.loc 1 155 39 discriminator 1 view .LVU114
 365 0176 3046     		mov	r0, r6
 366 0178 FFF7FEFF 		bl	logf
 367              	.LVL32:
 368 017c 8346     		mov	fp, r0
 155:src/main.c    **** 
 369              		.loc 1 155 57 discriminator 2 view .LVU115
 370 017e 3846     		mov	r0, r7
 371 0180 FFF7FEFF 		bl	logf
 372              	.LVL33:
 373 0184 0746     		mov	r7, r0
 374              	.LVL34:
 155:src/main.c    **** 
 375              		.loc 1 155 77 discriminator 3 view .LVU116
 376 0186 4046     		mov	r0, r8
 377 0188 FFF7FEFF 		bl	logf
 378              	.LVL35:
 379 018c 8046     		mov	r8, r0
 380              	.LVL36:
 155:src/main.c    **** 
 381              		.loc 1 155 91 discriminator 4 view .LVU117
 382 018e 3046     		mov	r0, r6
 383 0190 FFF7FEFF 		bl	logf
 384              	.LVL37:
 155:src/main.c    **** 
 385              		.loc 1 155 37 discriminator 2 view .LVU118
 386 0194 5946     		mov	r1, fp
 155:src/main.c    **** 
 387              		.loc 1 155 91 discriminator 4 view .LVU119
 388 0196 8246     		mov	r10, r0
 389              	.LVL38:
 157:src/main.c    ****       hr_values = (60.00f) * refined_freq;
 390              		.loc 1 157 7 is_stmt 1 view .LVU120
 158:src/main.c    **** #else
 391              		.loc 1 158 7 view .LVU121
ARM GAS  /tmp/cctFGGIe.s 			page 12


 155:src/main.c    **** 
 392              		.loc 1 155 37 is_stmt 0 discriminator 2 view .LVU122
 393 0198 4846     		mov	r0, r9
 394              	.LVL39:
 155:src/main.c    **** 
 395              		.loc 1 155 37 discriminator 2 view .LVU123
 396 019a FFF7FEFF 		bl	__aeabi_fsub
 397              	.LVL40:
 155:src/main.c    **** 
 398              		.loc 1 155 20 discriminator 2 view .LVU124
 399 019e 4FF07C51 		mov	r1, #1056964608
 400 01a2 FFF7FEFF 		bl	__aeabi_fmul
 401              	.LVL41:
 155:src/main.c    **** 
 402              		.loc 1 155 75 discriminator 4 view .LVU125
 403 01a6 4146     		mov	r1, r8
 155:src/main.c    **** 
 404              		.loc 1 155 20 discriminator 2 view .LVU126
 405 01a8 0646     		mov	r6, r0
 406              	.LVL42:
 155:src/main.c    **** 
 407              		.loc 1 155 75 discriminator 4 view .LVU127
 408 01aa 4046     		mov	r0, r8
 409 01ac FFF7FEFF 		bl	__aeabi_fadd
 410              	.LVL43:
 411 01b0 0146     		mov	r1, r0
 155:src/main.c    **** 
 412              		.loc 1 155 71 discriminator 4 view .LVU128
 413 01b2 3846     		mov	r0, r7
 414 01b4 FFF7FEFF 		bl	__aeabi_fsub
 415              	.LVL44:
 155:src/main.c    **** 
 416              		.loc 1 155 89 discriminator 5 view .LVU129
 417 01b8 5146     		mov	r1, r10
 418 01ba FFF7FEFF 		bl	__aeabi_fadd
 419              	.LVL45:
 420 01be 0146     		mov	r1, r0
 155:src/main.c    **** 
 421              		.loc 1 155 13 discriminator 5 view .LVU130
 422 01c0 3046     		mov	r0, r6
 423 01c2 FFF7FEFF 		bl	__aeabi_fdiv
 424              	.LVL46:
 425 01c6 0646     		mov	r6, r0
 157:src/main.c    ****       hr_values = (60.00f) * refined_freq;
 426              		.loc 1 157 23 view .LVU131
 427 01c8 2846     		mov	r0, r5
 428 01ca FFF7FEFF 		bl	__aeabi_ui2f
 429              	.LVL47:
 430 01ce 0146     		mov	r1, r0
 157:src/main.c    ****       hr_values = (60.00f) * refined_freq;
 431              		.loc 1 157 43 view .LVU132
 432 01d0 3046     		mov	r0, r6
 433 01d2 FFF7FEFF 		bl	__aeabi_fadd
 434              	.LVL48:
 157:src/main.c    ****       hr_values = (60.00f) * refined_freq;
 435              		.loc 1 157 20 view .LVU133
 436 01d6 1149     		ldr	r1, .L27+36
ARM GAS  /tmp/cctFGGIe.s 			page 13


 437 01d8 FFF7FEFF 		bl	__aeabi_fmul
 438              	.LVL49:
 158:src/main.c    **** #else
 439              		.loc 1 158 28 view .LVU134
 440 01dc 1049     		ldr	r1, .L27+40
 441 01de FFF7FEFF 		bl	__aeabi_fmul
 442              	.LVL50:
 158:src/main.c    **** #else
 443              		.loc 1 158 17 view .LVU135
 444 01e2 C4F8200C 		str	r0, [r4, #3104]	@ float
 445              	.LVL51:
 446              	.L1:
 158:src/main.c    **** #else
 447              		.loc 1 158 17 view .LVU136
 448              	.LBE15:
 170:src/main.c    ****    }
 171:src/main.c    **** }
 449              		.loc 1 171 1 view .LVU137
 450 01e6 BDE8F88F 		pop	{r3, r4, r5, r6, r7, r8, r9, r10, fp, pc}
 451              	.LVL52:
 452              	.L18:
 453              	.LBB16:
 145:src/main.c    ****       float32_t mag_k = (mag[maxIndex]);
 454              		.loc 1 145 41 discriminator 1 view .LVU138
 455 01ea 0E4F     		ldr	r7, .L27+44
 456 01ec ADE7     		b	.L12
 457              	.LVL53:
 458              	.L19:
 147:src/main.c    ****       float32_t mag_kp1 = (mag[maxIndex + 1]);
 459              		.loc 1 147 37 discriminator 1 view .LVU139
 460 01ee DFF83480 		ldr	r8, .L27+44
 461 01f2 B3E7     		b	.L13
 462              	.LVL54:
 463              	.L20:
 149:src/main.c    **** 
 464              		.loc 1 149 41 discriminator 1 view .LVU140
 465 01f4 0B4E     		ldr	r6, .L27+44
 466 01f6 BAE7     		b	.L14
 467              	.L28:
 468              		.align	2
 469              	.L27:
 470 01f8 00000000 		.word	.LANCHOR0
 471 01fc 00000000 		.word	adc_buffer
 472 0200 00040000 		.word	.LANCHOR0+1024
 473 0204 00080000 		.word	.LANCHOR0+2048
 474 0208 00000000 		.word	.LANCHOR1
 475 020c 14080000 		.word	.LANCHOR0+2068
 476 0210 140C0000 		.word	.LANCHOR0+3092
 477 0214 78080000 		.word	.LANCHOR0+2168
 478 0218 180C0000 		.word	.LANCHOR0+3096
 479 021c 1B2FDD3D 		.word	1037905691
 480 0220 00007042 		.word	1114636288
 481 0224 6F12833A 		.word	981668463
 482              	.LBE16:
 483              		.cfi_endproc
 484              	.LFE122:
 485              		.size	DSP_process, .-DSP_process
ARM GAS  /tmp/cctFGGIe.s 			page 14


 486              		.global	__aeabi_f2uiz
 487              		.section	.text.startup,"ax",%progbits
 488              		.align	1
 489              		.global	main
 490              		.syntax unified
 491              		.thumb
 492              		.thumb_func
 493              		.type	main, %function
 494              	main:
 495              	.LFB121:
  57:src/main.c    ****    // Peripheral and process initialization
 496              		.loc 1 57 1 is_stmt 1 view -0
 497              		.cfi_startproc
 498              		@ Volatile: function does not return.
 499              		@ args = 0, pretend = 0, frame = 0
 500              		@ frame_needed = 0, uses_anonymous_args = 0
  59:src/main.c    ****    spi_init();      // SPI initialization
 501              		.loc 1 59 4 view .LVU142
  57:src/main.c    ****    // Peripheral and process initialization
 502              		.loc 1 57 1 is_stmt 0 view .LVU143
 503 0000 08B5     		push	{r3, lr}
 504              		.cfi_def_cfa_offset 8
 505              		.cfi_offset 3, -8
 506              		.cfi_offset 14, -4
  59:src/main.c    ****    spi_init();      // SPI initialization
 507              		.loc 1 59 4 view .LVU144
 508 0002 FFF7FEFF 		bl	X_Clock_Init
 509              	.LVL55:
  60:src/main.c    ****    TIM2_Init();     // TIM2 Delay initialization
 510              		.loc 1 60 4 is_stmt 1 view .LVU145
 511 0006 FFF7FEFF 		bl	spi_init
 512              	.LVL56:
  61:src/main.c    ****    adc_init_cont(); // ADC  initialization
 513              		.loc 1 61 4 view .LVU146
 514 000a FFF7FEFF 		bl	TIM2_Init
 515              	.LVL57:
  62:src/main.c    ****    led_init();      // LEDs initialization
 516              		.loc 1 62 4 view .LVU147
 517 000e FFF7FEFF 		bl	adc_init_cont
 518              	.LVL58:
  63:src/main.c    **** 
 519              		.loc 1 63 4 view .LVU148
 520 0012 FFF7FEFF 		bl	led_init
 521              	.LVL59:
  65:src/main.c    **** 
 522              		.loc 1 65 4 view .LVU149
 523 0016 0123     		movs	r3, #1
 524 0018 0022     		movs	r2, #0
 525 001a 4FF40071 		mov	r1, #512
 526 001e 0F48     		ldr	r0, .L33
 527 0020 FFF7FEFF 		bl	arm_cfft_radix2_init_q15
 528              	.LVL60:
  69:src/main.c    ****       {
 529              		.loc 1 69 11 is_stmt 0 view .LVU150
 530 0024 0E4E     		ldr	r6, .L33+4
  82:src/main.c    ****          _us_delay(50);
 531              		.loc 1 82 10 view .LVU151
ARM GAS  /tmp/cctFGGIe.s 			page 15


 532 0026 0F4D     		ldr	r5, .L33+8
 533              	.L30:
  67:src/main.c    ****    {
 534              		.loc 1 67 4 is_stmt 1 view .LVU152
  69:src/main.c    ****       {
 535              		.loc 1 69 7 view .LVU153
  69:src/main.c    ****       {
 536              		.loc 1 69 10 is_stmt 0 view .LVU154
 537 0028 3378     		ldrb	r3, [r6]	@ zero_extendqisi2
 538 002a 33B1     		cbz	r3, .L31
  72:src/main.c    ****          DSP_process(); // call DSP_process
 539              		.loc 1 72 10 is_stmt 1 view .LVU155
  72:src/main.c    ****          DSP_process(); // call DSP_process
 540              		.loc 1 72 19 is_stmt 0 view .LVU156
 541 002c 0023     		movs	r3, #0
 542 002e 3370     		strb	r3, [r6]
  73:src/main.c    **** 
 543              		.loc 1 73 10 is_stmt 1 view .LVU157
 544 0030 FFF7FEFF 		bl	DSP_process
 545              	.LVL61:
  76:src/main.c    ****       }
 546              		.loc 1 76 10 view .LVU158
 547 0034 FFF7FEFF 		bl	start_process
 548              	.LVL62:
 549 0038 F6E7     		b	.L30
 550              	.L31:
  81:src/main.c    ****          spi_transmit(hr_values, confidence); // display Heart Rate and confidence
 551              		.loc 1 81 10 view .LVU159
 552 003a 3220     		movs	r0, #50
 553 003c FFF7FEFF 		bl	_us_delay
 554              	.LVL63:
  82:src/main.c    ****          _us_delay(50);
 555              		.loc 1 82 10 view .LVU160
 556 0040 D5F8200C 		ldr	r0, [r5, #3104]	@ float
 557 0044 B5F81E4C 		ldrh	r4, [r5, #3102]
 558 0048 FFF7FEFF 		bl	__aeabi_f2uiz
 559              	.LVL64:
 560 004c 24B2     		sxth	r4, r4
 561 004e 2146     		mov	r1, r4
 562 0050 FFF7FEFF 		bl	spi_transmit
 563              	.LVL65:
  83:src/main.c    ****       }
 564              		.loc 1 83 10 view .LVU161
 565 0054 3220     		movs	r0, #50
 566 0056 FFF7FEFF 		bl	_us_delay
 567              	.LVL66:
 568 005a E5E7     		b	.L30
 569              	.L34:
 570              		.align	2
 571              	.L33:
 572 005c 04080000 		.word	.LANCHOR0+2052
 573 0060 00000000 		.word	ACC_COMP
 574 0064 00000000 		.word	.LANCHOR0
 575              		.cfi_endproc
 576              	.LFE121:
 577              		.size	main, .-main
 578              		.global	fft_inst
ARM GAS  /tmp/cctFGGIe.s 			page 16


 579              		.global	sampleMean
 580              		.global	hr_values
 581              		.global	confidence
 582              		.global	noisefloor
 583              		.global	maxIndex
 584              		.global	maxVal
 585              		.global	input
 586              		.global	pSPO2_RED
 587              		.global	pSPO2_IR
 588              		.global	pPPG_Sample
 589              		.global	__errno
 590              		.global	hamming
 591              		.data
 592              		.align	2
 593              		.set	.LANCHOR1,. + 0
 594              		.type	hamming, %object
 595              		.size	hamming, 512
 596              	hamming:
 597 0000 3D0A     		.short	2621
 598 0002 420A     		.short	2626
 599 0004 500A     		.short	2640
 600 0006 670A     		.short	2663
 601 0008 870A     		.short	2695
 602 000a B00A     		.short	2736
 603 000c E20A     		.short	2786
 604 000e 1D0B     		.short	2845
 605 0010 610B     		.short	2913
 606 0012 AF0B     		.short	2991
 607 0014 050C     		.short	3077
 608 0016 640C     		.short	3172
 609 0018 CC0C     		.short	3276
 610 001a 3C0D     		.short	3388
 611 001c B50D     		.short	3509
 612 001e 370E     		.short	3639
 613 0020 C20E     		.short	3778
 614 0022 550F     		.short	3925
 615 0024 F00F     		.short	4080
 616 0026 9310     		.short	4243
 617 0028 3F11     		.short	4415
 618 002a F311     		.short	4595
 619 002c AE12     		.short	4782
 620 002e 7213     		.short	4978
 621 0030 3D14     		.short	5181
 622 0032 1015     		.short	5392
 623 0034 EA15     		.short	5610
 624 0036 CC16     		.short	5836
 625 0038 B517     		.short	6069
 626 003a A518     		.short	6309
 627 003c 9B19     		.short	6555
 628 003e 991A     		.short	6809
 629 0040 9D1B     		.short	7069
 630 0042 A81C     		.short	7336
 631 0044 B91D     		.short	7609
 632 0046 D01E     		.short	7888
 633 0048 ED1F     		.short	8173
 634 004a 1021     		.short	8464
 635 004c 3822     		.short	8760
ARM GAS  /tmp/cctFGGIe.s 			page 17


 636 004e 6623     		.short	9062
 637 0050 9924     		.short	9369
 638 0052 D125     		.short	9681
 639 0054 0E27     		.short	9998
 640 0056 4F28     		.short	10319
 641 0058 9629     		.short	10646
 642 005a E02A     		.short	10976
 643 005c 2E2C     		.short	11310
 644 005e 812D     		.short	11649
 645 0060 D72E     		.short	11991
 646 0062 3030     		.short	12336
 647 0064 8D31     		.short	12685
 648 0066 ED32     		.short	13037
 649 0068 4F34     		.short	13391
 650 006a B535     		.short	13749
 651 006c 1C37     		.short	14108
 652 006e 8638     		.short	14470
 653 0070 F239     		.short	14834
 654 0072 5F3B     		.short	15199
 655 0074 CE3C     		.short	15566
 656 0076 3F3E     		.short	15935
 657 0078 B03F     		.short	16304
 658 007a 2241     		.short	16674
 659 007c 9542     		.short	17045
 660 007e 0844     		.short	17416
 661 0080 7C45     		.short	17788
 662 0082 EF46     		.short	18159
 663 0084 6248     		.short	18530
 664 0086 D449     		.short	18900
 665 0088 464B     		.short	19270
 666 008a B74C     		.short	19639
 667 008c 274E     		.short	20007
 668 008e 954F     		.short	20373
 669 0090 0251     		.short	20738
 670 0092 6D52     		.short	21101
 671 0094 D553     		.short	21461
 672 0096 3C55     		.short	21820
 673 0098 A056     		.short	22176
 674 009a 0158     		.short	22529
 675 009c 5F59     		.short	22879
 676 009e BA5A     		.short	23226
 677 00a0 125C     		.short	23570
 678 00a2 665D     		.short	23910
 679 00a4 B75E     		.short	24247
 680 00a6 0360     		.short	24579
 681 00a8 4B61     		.short	24907
 682 00aa 8F62     		.short	25231
 683 00ac CF63     		.short	25551
 684 00ae 0965     		.short	25865
 685 00b0 3F66     		.short	26175
 686 00b2 6F67     		.short	26479
 687 00b4 9A68     		.short	26778
 688 00b6 C069     		.short	27072
 689 00b8 E06A     		.short	27360
 690 00ba FA6B     		.short	27642
 691 00bc 0E6D     		.short	27918
 692 00be 1C6E     		.short	28188
ARM GAS  /tmp/cctFGGIe.s 			page 18


 693 00c0 236F     		.short	28451
 694 00c2 2470     		.short	28708
 695 00c4 1E71     		.short	28958
 696 00c6 1272     		.short	29202
 697 00c8 FE72     		.short	29438
 698 00ca E373     		.short	29667
 699 00cc C174     		.short	29889
 700 00ce 9875     		.short	30104
 701 00d0 6776     		.short	30311
 702 00d2 2E77     		.short	30510
 703 00d4 EE77     		.short	30702
 704 00d6 A678     		.short	30886
 705 00d8 5579     		.short	31061
 706 00da FD79     		.short	31229
 707 00dc 9C7A     		.short	31388
 708 00de 337B     		.short	31539
 709 00e0 C27B     		.short	31682
 710 00e2 487C     		.short	31816
 711 00e4 C67C     		.short	31942
 712 00e6 3B7D     		.short	32059
 713 00e8 A77D     		.short	32167
 714 00ea 0A7E     		.short	32266
 715 00ec 657E     		.short	32357
 716 00ee B77E     		.short	32439
 717 00f0 FF7E     		.short	32511
 718 00f2 3F7F     		.short	32575
 719 00f4 767F     		.short	32630
 720 00f6 A37F     		.short	32675
 721 00f8 C87F     		.short	32712
 722 00fa E37F     		.short	32739
 723 00fc F67F     		.short	32758
 724 00fe FF7F     		.short	32767
 725 0100 FF7F     		.short	32767
 726 0102 F67F     		.short	32758
 727 0104 E37F     		.short	32739
 728 0106 C87F     		.short	32712
 729 0108 A37F     		.short	32675
 730 010a 767F     		.short	32630
 731 010c 3F7F     		.short	32575
 732 010e FF7E     		.short	32511
 733 0110 B77E     		.short	32439
 734 0112 657E     		.short	32357
 735 0114 0A7E     		.short	32266
 736 0116 A77D     		.short	32167
 737 0118 3B7D     		.short	32059
 738 011a C67C     		.short	31942
 739 011c 487C     		.short	31816
 740 011e C27B     		.short	31682
 741 0120 337B     		.short	31539
 742 0122 9C7A     		.short	31388
 743 0124 FD79     		.short	31229
 744 0126 5579     		.short	31061
 745 0128 A678     		.short	30886
 746 012a EE77     		.short	30702
 747 012c 2E77     		.short	30510
 748 012e 6776     		.short	30311
 749 0130 9875     		.short	30104
ARM GAS  /tmp/cctFGGIe.s 			page 19


 750 0132 C174     		.short	29889
 751 0134 E373     		.short	29667
 752 0136 FE72     		.short	29438
 753 0138 1272     		.short	29202
 754 013a 1E71     		.short	28958
 755 013c 2470     		.short	28708
 756 013e 236F     		.short	28451
 757 0140 1C6E     		.short	28188
 758 0142 0E6D     		.short	27918
 759 0144 FA6B     		.short	27642
 760 0146 E06A     		.short	27360
 761 0148 C069     		.short	27072
 762 014a 9A68     		.short	26778
 763 014c 6F67     		.short	26479
 764 014e 3F66     		.short	26175
 765 0150 0965     		.short	25865
 766 0152 CF63     		.short	25551
 767 0154 8F62     		.short	25231
 768 0156 4B61     		.short	24907
 769 0158 0360     		.short	24579
 770 015a B75E     		.short	24247
 771 015c 665D     		.short	23910
 772 015e 125C     		.short	23570
 773 0160 BA5A     		.short	23226
 774 0162 5F59     		.short	22879
 775 0164 0158     		.short	22529
 776 0166 A056     		.short	22176
 777 0168 3C55     		.short	21820
 778 016a D553     		.short	21461
 779 016c 6D52     		.short	21101
 780 016e 0251     		.short	20738
 781 0170 954F     		.short	20373
 782 0172 274E     		.short	20007
 783 0174 B74C     		.short	19639
 784 0176 464B     		.short	19270
 785 0178 D449     		.short	18900
 786 017a 6248     		.short	18530
 787 017c EF46     		.short	18159
 788 017e 7C45     		.short	17788
 789 0180 0844     		.short	17416
 790 0182 9542     		.short	17045
 791 0184 2241     		.short	16674
 792 0186 B03F     		.short	16304
 793 0188 3F3E     		.short	15935
 794 018a CE3C     		.short	15566
 795 018c 5F3B     		.short	15199
 796 018e F239     		.short	14834
 797 0190 8638     		.short	14470
 798 0192 1C37     		.short	14108
 799 0194 B535     		.short	13749
 800 0196 4F34     		.short	13391
 801 0198 ED32     		.short	13037
 802 019a 8D31     		.short	12685
 803 019c 3030     		.short	12336
 804 019e D72E     		.short	11991
 805 01a0 812D     		.short	11649
 806 01a2 2E2C     		.short	11310
ARM GAS  /tmp/cctFGGIe.s 			page 20


 807 01a4 E02A     		.short	10976
 808 01a6 9629     		.short	10646
 809 01a8 4F28     		.short	10319
 810 01aa 0E27     		.short	9998
 811 01ac D125     		.short	9681
 812 01ae 9924     		.short	9369
 813 01b0 6623     		.short	9062
 814 01b2 3822     		.short	8760
 815 01b4 1021     		.short	8464
 816 01b6 ED1F     		.short	8173
 817 01b8 D01E     		.short	7888
 818 01ba B91D     		.short	7609
 819 01bc A81C     		.short	7336
 820 01be 9D1B     		.short	7069
 821 01c0 991A     		.short	6809
 822 01c2 9B19     		.short	6555
 823 01c4 A518     		.short	6309
 824 01c6 B517     		.short	6069
 825 01c8 CC16     		.short	5836
 826 01ca EA15     		.short	5610
 827 01cc 1015     		.short	5392
 828 01ce 3D14     		.short	5181
 829 01d0 7213     		.short	4978
 830 01d2 AE12     		.short	4782
 831 01d4 F311     		.short	4595
 832 01d6 3F11     		.short	4415
 833 01d8 9310     		.short	4243
 834 01da F00F     		.short	4080
 835 01dc 550F     		.short	3925
 836 01de C20E     		.short	3778
 837 01e0 370E     		.short	3639
 838 01e2 B50D     		.short	3509
 839 01e4 3C0D     		.short	3388
 840 01e6 CC0C     		.short	3276
 841 01e8 640C     		.short	3172
 842 01ea 050C     		.short	3077
 843 01ec AF0B     		.short	2991
 844 01ee 610B     		.short	2913
 845 01f0 1D0B     		.short	2845
 846 01f2 E20A     		.short	2786
 847 01f4 B00A     		.short	2736
 848 01f6 870A     		.short	2695
 849 01f8 670A     		.short	2663
 850 01fa 500A     		.short	2640
 851 01fc 420A     		.short	2626
 852 01fe 3D0A     		.short	2621
 853              		.type	pSPO2_RED, %object
 854              		.size	pSPO2_RED, 4
 855              	pSPO2_RED:
 856 0200 04000000 		.word	adc_buffer+4
 857              		.type	pSPO2_IR, %object
 858              		.size	pSPO2_IR, 4
 859              	pSPO2_IR:
 860 0204 02000000 		.word	adc_buffer+2
 861              		.type	pPPG_Sample, %object
 862              		.size	pPPG_Sample, 4
 863              	pPPG_Sample:
ARM GAS  /tmp/cctFGGIe.s 			page 21


 864 0208 00000000 		.word	adc_buffer
 865              		.bss
 866              		.align	2
 867              		.set	.LANCHOR0,. + 0
 868              		.type	input, %object
 869              		.size	input, 2048
 870              	input:
 871 0000 00000000 		.space	2048
 871      00000000 
 871      00000000 
 871      00000000 
 871      00000000 
 872              		.type	sampleMean, %object
 873              		.size	sampleMean, 2
 874              	sampleMean:
 875 0800 0000     		.space	2
 876 0802 0000     		.space	2
 877              		.type	fft_inst, %object
 878              		.size	fft_inst, 16
 879              	fft_inst:
 880 0804 00000000 		.space	16
 880      00000000 
 880      00000000 
 880      00000000 
 881              		.type	mag, %object
 882              		.size	mag, 1024
 883              	mag:
 884 0814 00000000 		.space	1024
 884      00000000 
 884      00000000 
 884      00000000 
 884      00000000 
 885              		.type	noisefloor, %object
 886              		.size	noisefloor, 2
 887              	noisefloor:
 888 0c14 0000     		.space	2
 889 0c16 0000     		.space	2
 890              		.type	maxIndex, %object
 891              		.size	maxIndex, 4
 892              	maxIndex:
 893 0c18 00000000 		.space	4
 894              		.type	maxVal, %object
 895              		.size	maxVal, 2
 896              	maxVal:
 897 0c1c 0000     		.space	2
 898              		.type	confidence, %object
 899              		.size	confidence, 2
 900              	confidence:
 901 0c1e 0000     		.space	2
 902              		.type	hr_values, %object
 903              		.size	hr_values, 4
 904              	hr_values:
 905 0c20 00000000 		.space	4
 906              		.type	__errno, %object
 907              		.size	__errno, 4
 908              	__errno:
 909 0c24 00000000 		.space	4
ARM GAS  /tmp/cctFGGIe.s 			page 22


 910              		.text
 911              	.Letext0:
 912              		.file 2 "/opt/arm-none-eabi/arm-none-eabi/include/machine/_default_types.h"
 913              		.file 3 "/opt/arm-none-eabi/arm-none-eabi/include/sys/_stdint.h"
 914              		.file 4 "/opt/arm-none-eabi/lib/gcc/arm-none-eabi/13.3.1/include/stddef.h"
 915              		.file 5 "dsp_lib/arm_math.h"
 916              		.file 6 "src/drivers/adc.h"
 917              		.file 7 "src/hamming.h"
 918              		.file 8 "/opt/arm-none-eabi/arm-none-eabi/include/math.h"
 919              		.file 9 "/opt/arm-none-eabi/arm-none-eabi/include/string.h"
 920              		.file 10 "src/drivers/spi.h"
 921              		.file 11 "src/drivers/delay.h"
 922              		.file 12 "src/drivers/ledconf.h"
 923              		.file 13 "src/drivers/HSE_CLK.h"
 924              		.file 14 "<built-in>"
 925              		.section	.debug_info,"",%progbits
 926              	.Ldebug_info0:
 927 0000 E9080000 		.4byte	0x8e9
 928 0004 0500     		.2byte	0x5
 929 0006 01       		.byte	0x1
 930 0007 04       		.byte	0x4
 931 0008 00000000 		.4byte	.Ldebug_abbrev0
 932 000c 1A       		.uleb128 0x1a
 933 000d 01040000 		.4byte	.LASF91
 934 0011 1D       		.byte	0x1d
 935 0012 AE040000 		.4byte	.LASF92
 936 0016 38010000 		.4byte	.LASF93
 937 001a 57000000 		.4byte	.LLRL16
 938 001e 00000000 		.4byte	0
 939 0022 00000000 		.4byte	.Ldebug_line0
 940 0026 05       		.uleb128 0x5
 941 0027 04       		.byte	0x4
 942 0028 04       		.byte	0x4
 943 0029 63010000 		.4byte	.LASF0
 944 002d 05       		.uleb128 0x5
 945 002e 04       		.byte	0x4
 946 002f 07       		.byte	0x7
 947 0030 F1020000 		.4byte	.LASF1
 948 0034 05       		.uleb128 0x5
 949 0035 02       		.byte	0x2
 950 0036 05       		.byte	0x5
 951 0037 47000000 		.4byte	.LASF2
 952 003b 05       		.uleb128 0x5
 953 003c 01       		.byte	0x1
 954 003d 06       		.byte	0x6
 955 003e 2F020000 		.4byte	.LASF3
 956 0042 06       		.uleb128 0x6
 957 0043 88020000 		.4byte	.LASF4
 958 0047 02       		.byte	0x2
 959 0048 29       		.byte	0x29
 960 0049 17       		.byte	0x17
 961 004a 3B000000 		.4byte	0x3b
 962 004e 06       		.uleb128 0x6
 963 004f B8010000 		.4byte	.LASF5
 964 0053 02       		.byte	0x2
 965 0054 2B       		.byte	0x2b
 966 0055 18       		.byte	0x18
ARM GAS  /tmp/cctFGGIe.s 			page 23


 967 0056 5A000000 		.4byte	0x5a
 968 005a 05       		.uleb128 0x5
 969 005b 01       		.byte	0x1
 970 005c 08       		.byte	0x8
 971 005d 01020000 		.4byte	.LASF6
 972 0061 06       		.uleb128 0x6
 973 0062 CC030000 		.4byte	.LASF7
 974 0066 02       		.byte	0x2
 975 0067 37       		.byte	0x37
 976 0068 18       		.byte	0x18
 977 0069 34000000 		.4byte	0x34
 978 006d 06       		.uleb128 0x6
 979 006e B1000000 		.4byte	.LASF8
 980 0072 02       		.byte	0x2
 981 0073 39       		.byte	0x39
 982 0074 19       		.byte	0x19
 983 0075 79000000 		.4byte	0x79
 984 0079 05       		.uleb128 0x5
 985 007a 02       		.byte	0x2
 986 007b 07       		.byte	0x7
 987 007c C2020000 		.4byte	.LASF9
 988 0080 06       		.uleb128 0x6
 989 0081 9B030000 		.4byte	.LASF10
 990 0085 02       		.byte	0x2
 991 0086 4D       		.byte	0x4d
 992 0087 18       		.byte	0x18
 993 0088 8C000000 		.4byte	0x8c
 994 008c 05       		.uleb128 0x5
 995 008d 04       		.byte	0x4
 996 008e 05       		.byte	0x5
 997 008f 9B010000 		.4byte	.LASF11
 998 0093 06       		.uleb128 0x6
 999 0094 8F000000 		.4byte	.LASF12
 1000 0098 02       		.byte	0x2
 1001 0099 4F       		.byte	0x4f
 1002 009a 19       		.byte	0x19
 1003 009b 9F000000 		.4byte	0x9f
 1004 009f 05       		.uleb128 0x5
 1005 00a0 04       		.byte	0x4
 1006 00a1 07       		.byte	0x7
 1007 00a2 48030000 		.4byte	.LASF13
 1008 00a6 05       		.uleb128 0x5
 1009 00a7 08       		.byte	0x8
 1010 00a8 05       		.byte	0x5
 1011 00a9 80010000 		.4byte	.LASF14
 1012 00ad 05       		.uleb128 0x5
 1013 00ae 08       		.byte	0x8
 1014 00af 07       		.byte	0x7
 1015 00b0 3B020000 		.4byte	.LASF15
 1016 00b4 1B       		.uleb128 0x1b
 1017 00b5 04       		.byte	0x4
 1018 00b6 05       		.byte	0x5
 1019 00b7 696E7400 		.ascii	"int\000"
 1020 00bb 06       		.uleb128 0x6
 1021 00bc 23000000 		.4byte	.LASF16
 1022 00c0 03       		.byte	0x3
 1023 00c1 14       		.byte	0x14
ARM GAS  /tmp/cctFGGIe.s 			page 24


 1024 00c2 12       		.byte	0x12
 1025 00c3 42000000 		.4byte	0x42
 1026 00c7 06       		.uleb128 0x6
 1027 00c8 12010000 		.4byte	.LASF17
 1028 00cc 03       		.byte	0x3
 1029 00cd 18       		.byte	0x18
 1030 00ce 13       		.byte	0x13
 1031 00cf 4E000000 		.4byte	0x4e
 1032 00d3 06       		.uleb128 0x6
 1033 00d4 D5020000 		.4byte	.LASF18
 1034 00d8 03       		.byte	0x3
 1035 00d9 20       		.byte	0x20
 1036 00da 13       		.byte	0x13
 1037 00db 61000000 		.4byte	0x61
 1038 00df 0F       		.uleb128 0xf
 1039 00e0 D3000000 		.4byte	0xd3
 1040 00e4 06       		.uleb128 0x6
 1041 00e5 6B020000 		.4byte	.LASF19
 1042 00e9 03       		.byte	0x3
 1043 00ea 24       		.byte	0x24
 1044 00eb 14       		.byte	0x14
 1045 00ec 6D000000 		.4byte	0x6d
 1046 00f0 06       		.uleb128 0x6
 1047 00f1 B0020000 		.4byte	.LASF20
 1048 00f5 03       		.byte	0x3
 1049 00f6 2C       		.byte	0x2c
 1050 00f7 13       		.byte	0x13
 1051 00f8 80000000 		.4byte	0x80
 1052 00fc 06       		.uleb128 0x6
 1053 00fd 5B020000 		.4byte	.LASF21
 1054 0101 03       		.byte	0x3
 1055 0102 30       		.byte	0x30
 1056 0103 14       		.byte	0x14
 1057 0104 93000000 		.4byte	0x93
 1058 0108 06       		.uleb128 0x6
 1059 0109 51000000 		.4byte	.LASF22
 1060 010d 04       		.byte	0x4
 1061 010e D6       		.byte	0xd6
 1062 010f 17       		.byte	0x17
 1063 0110 2D000000 		.4byte	0x2d
 1064 0114 05       		.uleb128 0x5
 1065 0115 08       		.byte	0x8
 1066 0116 04       		.byte	0x4
 1067 0117 C2010000 		.4byte	.LASF23
 1068 011b 1C       		.uleb128 0x1c
 1069 011c 04       		.byte	0x4
 1070 011d 05       		.uleb128 0x5
 1071 011e 01       		.byte	0x1
 1072 011f 08       		.byte	0x8
 1073 0120 A2020000 		.4byte	.LASF24
 1074 0124 05       		.uleb128 0x5
 1075 0125 08       		.byte	0x8
 1076 0126 04       		.byte	0x4
 1077 0127 71030000 		.4byte	.LASF25
 1078 012b 1D       		.uleb128 0x1d
 1079 012c 05       		.byte	0x5
 1080 012d 01       		.byte	0x1
ARM GAS  /tmp/cctFGGIe.s 			page 25


 1081 012e 3B000000 		.4byte	0x3b
 1082 0132 05       		.byte	0x5
 1083 0133 7601     		.2byte	0x176
 1084 0135 03       		.byte	0x3
 1085 0136 65010000 		.4byte	0x165
 1086 013a 1E       		.uleb128 0x1e
 1087 013b 79000000 		.4byte	.LASF26
 1088 013f 00       		.byte	0
 1089 0140 0B       		.uleb128 0xb
 1090 0141 B4030000 		.4byte	.LASF27
 1091 0145 7F       		.sleb128 -1
 1092 0146 0B       		.uleb128 0xb
 1093 0147 98040000 		.4byte	.LASF28
 1094 014b 7E       		.sleb128 -2
 1095 014c 0B       		.uleb128 0xb
 1096 014d 5A030000 		.4byte	.LASF29
 1097 0151 7D       		.sleb128 -3
 1098 0152 0B       		.uleb128 0xb
 1099 0153 C7000000 		.4byte	.LASF30
 1100 0157 7C       		.sleb128 -4
 1101 0158 0B       		.uleb128 0xb
 1102 0159 2A000000 		.4byte	.LASF31
 1103 015d 7B       		.sleb128 -5
 1104 015e 0B       		.uleb128 0xb
 1105 015f D6030000 		.4byte	.LASF32
 1106 0163 7A       		.sleb128 -6
 1107 0164 00       		.byte	0
 1108 0165 10       		.uleb128 0x10
 1109 0166 3C000000 		.4byte	.LASF33
 1110 016a 7E01     		.2byte	0x17e
 1111 016c 05       		.byte	0x5
 1112 016d 2B010000 		.4byte	0x12b
 1113 0171 10       		.uleb128 0x10
 1114 0172 1D000000 		.4byte	.LASF34
 1115 0176 8801     		.2byte	0x188
 1116 0178 13       		.byte	0x13
 1117 0179 D3000000 		.4byte	0xd3
 1118 017d 0F       		.uleb128 0xf
 1119 017e 71010000 		.4byte	0x171
 1120 0182 10       		.uleb128 0x10
 1121 0183 AE010000 		.4byte	.LASF35
 1122 0187 9701     		.2byte	0x197
 1123 0189 11       		.byte	0x11
 1124 018a 26000000 		.4byte	0x26
 1125 018e 0F       		.uleb128 0xf
 1126 018f 82010000 		.4byte	0x182
 1127 0193 0C       		.uleb128 0xc
 1128 0194 71010000 		.4byte	0x171
 1129 0198 1F       		.uleb128 0x1f
 1130 0199 10       		.byte	0x10
 1131 019a 05       		.byte	0x5
 1132 019b 9C07     		.2byte	0x79c
 1133 019d 0B       		.byte	0xb
 1134 019e FE010000 		.4byte	0x1fe
 1135 01a2 09       		.uleb128 0x9
 1136 01a3 64020000 		.4byte	.LASF36
 1137 01a7 9E07     		.2byte	0x79e
ARM GAS  /tmp/cctFGGIe.s 			page 26


 1138 01a9 0E       		.byte	0xe
 1139 01aa E4000000 		.4byte	0xe4
 1140 01ae 00       		.byte	0
 1141 01af 09       		.uleb128 0x9
 1142 01b0 00000000 		.4byte	.LASF37
 1143 01b4 9F07     		.2byte	0x79f
 1144 01b6 0D       		.byte	0xd
 1145 01b7 C7000000 		.4byte	0xc7
 1146 01bb 02       		.byte	0x2
 1147 01bc 09       		.uleb128 0x9
 1148 01bd A5030000 		.4byte	.LASF38
 1149 01c1 A007     		.2byte	0x7a0
 1150 01c3 0D       		.byte	0xd
 1151 01c4 C7000000 		.4byte	0xc7
 1152 01c8 03       		.byte	0x3
 1153 01c9 09       		.uleb128 0x9
 1154 01ca 72010000 		.4byte	.LASF39
 1155 01ce A107     		.2byte	0x7a1
 1156 01d0 0C       		.byte	0xc
 1157 01d1 93010000 		.4byte	0x193
 1158 01d5 04       		.byte	0x4
 1159 01d6 09       		.uleb128 0x9
 1160 01d7 05010000 		.4byte	.LASF40
 1161 01db A207     		.2byte	0x7a2
 1162 01dd 0F       		.byte	0xf
 1163 01de FE010000 		.4byte	0x1fe
 1164 01e2 08       		.byte	0x8
 1165 01e3 09       		.uleb128 0x9
 1166 01e4 91020000 		.4byte	.LASF41
 1167 01e8 A307     		.2byte	0x7a3
 1168 01ea 0E       		.byte	0xe
 1169 01eb E4000000 		.4byte	0xe4
 1170 01ef 0C       		.byte	0xc
 1171 01f0 09       		.uleb128 0x9
 1172 01f1 5E000000 		.4byte	.LASF42
 1173 01f5 A407     		.2byte	0x7a4
 1174 01f7 0E       		.byte	0xe
 1175 01f8 E4000000 		.4byte	0xe4
 1176 01fc 0E       		.byte	0xe
 1177 01fd 00       		.byte	0
 1178 01fe 0C       		.uleb128 0xc
 1179 01ff E4000000 		.4byte	0xe4
 1180 0203 10       		.uleb128 0x10
 1181 0204 B9040000 		.4byte	.LASF43
 1182 0208 A507     		.2byte	0x7a5
 1183 020a 05       		.byte	0x5
 1184 020b 98010000 		.4byte	0x198
 1185 020f 20       		.uleb128 0x20
 1186 0210 03020000 		.4byte	0x203
 1187 0214 11       		.uleb128 0x11
 1188 0215 DF000000 		.4byte	0xdf
 1189 0219 25020000 		.4byte	0x225
 1190 021d 12       		.uleb128 0x12
 1191 021e 2D000000 		.4byte	0x2d
 1192 0222 FF03     		.2byte	0x3ff
 1193 0224 00       		.byte	0
 1194 0225 0F       		.uleb128 0xf
ARM GAS  /tmp/cctFGGIe.s 			page 27


 1195 0226 14020000 		.4byte	0x214
 1196 022a 15       		.uleb128 0x15
 1197 022b 1A010000 		.4byte	.LASF44
 1198 022f 19       		.byte	0x19
 1199 0230 19       		.byte	0x19
 1200 0231 25020000 		.4byte	0x225
 1201 0235 15       		.uleb128 0x15
 1202 0236 85030000 		.4byte	.LASF45
 1203 023a 1B       		.byte	0x1b
 1204 023b 0D       		.byte	0xd
 1205 023c 40020000 		.4byte	0x240
 1206 0240 05       		.uleb128 0x5
 1207 0241 01       		.byte	0x1
 1208 0242 02       		.byte	0x2
 1209 0243 DD020000 		.4byte	.LASF46
 1210 0247 11       		.uleb128 0x11
 1211 0248 71010000 		.4byte	0x171
 1212 024c 57020000 		.4byte	0x257
 1213 0250 21       		.uleb128 0x21
 1214 0251 2D000000 		.4byte	0x2d
 1215 0255 FF       		.byte	0xff
 1216 0256 00       		.byte	0
 1217 0257 07       		.uleb128 0x7
 1218 0258 F9030000 		.4byte	.LASF47
 1219 025c 07       		.byte	0x7
 1220 025d 04       		.byte	0x4
 1221 025e 07       		.byte	0x7
 1222 025f 47020000 		.4byte	0x247
 1223 0263 05       		.uleb128 0x5
 1224 0264 03       		.byte	0x3
 1225 0265 00000000 		.4byte	hamming
 1226 0269 07       		.uleb128 0x7
 1227 026a D6040000 		.4byte	.LASF48
 1228 026e 01       		.byte	0x1
 1229 026f 22       		.byte	0x22
 1230 0270 05       		.byte	0x5
 1231 0271 B4000000 		.4byte	0xb4
 1232 0275 05       		.uleb128 0x5
 1233 0276 03       		.byte	0x3
 1234 0277 00000000 		.4byte	__errno
 1235 027b 07       		.uleb128 0x7
 1236 027c 2E030000 		.4byte	.LASF49
 1237 0280 01       		.byte	0x1
 1238 0281 24       		.byte	0x24
 1239 0282 0A       		.byte	0xa
 1240 0283 8D020000 		.4byte	0x28d
 1241 0287 05       		.uleb128 0x5
 1242 0288 03       		.byte	0x3
 1243 0289 00000000 		.4byte	pPPG_Sample
 1244 028d 0C       		.uleb128 0xc
 1245 028e D3000000 		.4byte	0xd3
 1246 0292 07       		.uleb128 0x7
 1247 0293 A7020000 		.4byte	.LASF50
 1248 0297 01       		.byte	0x1
 1249 0298 25       		.byte	0x25
 1250 0299 0A       		.byte	0xa
 1251 029a 8D020000 		.4byte	0x28d
ARM GAS  /tmp/cctFGGIe.s 			page 28


 1252 029e 05       		.uleb128 0x5
 1253 029f 03       		.byte	0x3
 1254 02a0 00000000 		.4byte	pSPO2_IR
 1255 02a4 07       		.uleb128 0x7
 1256 02a5 A4010000 		.4byte	.LASF51
 1257 02a9 01       		.byte	0x1
 1258 02aa 26       		.byte	0x26
 1259 02ab 0A       		.byte	0xa
 1260 02ac 8D020000 		.4byte	0x28d
 1261 02b0 05       		.uleb128 0x5
 1262 02b1 03       		.byte	0x3
 1263 02b2 00000000 		.4byte	pSPO2_RED
 1264 02b6 11       		.uleb128 0x11
 1265 02b7 71010000 		.4byte	0x171
 1266 02bb C7020000 		.4byte	0x2c7
 1267 02bf 12       		.uleb128 0x12
 1268 02c0 2D000000 		.4byte	0x2d
 1269 02c4 FF03     		.2byte	0x3ff
 1270 02c6 00       		.byte	0
 1271 02c7 07       		.uleb128 0x7
 1272 02c8 58000000 		.4byte	.LASF52
 1273 02cc 01       		.byte	0x1
 1274 02cd 27       		.byte	0x27
 1275 02ce 07       		.byte	0x7
 1276 02cf B6020000 		.4byte	0x2b6
 1277 02d3 05       		.uleb128 0x5
 1278 02d4 03       		.byte	0x3
 1279 02d5 00000000 		.4byte	input
 1280 02d9 11       		.uleb128 0x11
 1281 02da 71010000 		.4byte	0x171
 1282 02de EA020000 		.4byte	0x2ea
 1283 02e2 12       		.uleb128 0x12
 1284 02e3 2D000000 		.4byte	0x2d
 1285 02e7 FF01     		.2byte	0x1ff
 1286 02e9 00       		.byte	0
 1287 02ea 22       		.uleb128 0x22
 1288 02eb 6D616700 		.ascii	"mag\000"
 1289 02ef 01       		.byte	0x1
 1290 02f0 29       		.byte	0x29
 1291 02f1 0E       		.byte	0xe
 1292 02f2 D9020000 		.4byte	0x2d9
 1293 02f6 05       		.uleb128 0x5
 1294 02f7 03       		.byte	0x3
 1295 02f8 14080000 		.4byte	mag
 1296 02fc 07       		.uleb128 0x7
 1297 02fd 16000000 		.4byte	.LASF53
 1298 0301 01       		.byte	0x1
 1299 0302 2B       		.byte	0x2b
 1300 0303 07       		.byte	0x7
 1301 0304 71010000 		.4byte	0x171
 1302 0308 05       		.uleb128 0x5
 1303 0309 03       		.byte	0x3
 1304 030a 00000000 		.4byte	maxVal
 1305 030e 07       		.uleb128 0x7
 1306 030f 9A000000 		.4byte	.LASF54
 1307 0313 01       		.byte	0x1
 1308 0314 2C       		.byte	0x2c
ARM GAS  /tmp/cctFGGIe.s 			page 29


 1309 0315 0A       		.byte	0xa
 1310 0316 FC000000 		.4byte	0xfc
 1311 031a 05       		.uleb128 0x5
 1312 031b 03       		.byte	0x3
 1313 031c 00000000 		.4byte	maxIndex
 1314 0320 07       		.uleb128 0x7
 1315 0321 BC000000 		.4byte	.LASF55
 1316 0325 01       		.byte	0x1
 1317 0326 2D       		.byte	0x2d
 1318 0327 07       		.byte	0x7
 1319 0328 71010000 		.4byte	0x171
 1320 032c 05       		.uleb128 0x5
 1321 032d 03       		.byte	0x3
 1322 032e 00000000 		.4byte	noisefloor
 1323 0332 07       		.uleb128 0x7
 1324 0333 6D040000 		.4byte	.LASF56
 1325 0337 01       		.byte	0x1
 1326 0338 2E       		.byte	0x2e
 1327 0339 10       		.byte	0x10
 1328 033a 7D010000 		.4byte	0x17d
 1329 033e 05       		.uleb128 0x5
 1330 033f 03       		.byte	0x3
 1331 0340 00000000 		.4byte	confidence
 1332 0344 07       		.uleb128 0x7
 1333 0345 7E020000 		.4byte	.LASF57
 1334 0349 01       		.byte	0x1
 1335 034a 2F       		.byte	0x2f
 1336 034b 14       		.byte	0x14
 1337 034c 8E010000 		.4byte	0x18e
 1338 0350 05       		.uleb128 0x5
 1339 0351 03       		.byte	0x3
 1340 0352 00000000 		.4byte	hr_values
 1341 0356 07       		.uleb128 0x7
 1342 0357 78040000 		.4byte	.LASF58
 1343 035b 01       		.byte	0x1
 1344 035c 30       		.byte	0x30
 1345 035d 07       		.byte	0x7
 1346 035e 71010000 		.4byte	0x171
 1347 0362 05       		.uleb128 0x5
 1348 0363 03       		.byte	0x3
 1349 0364 00000000 		.4byte	sampleMean
 1350 0368 07       		.uleb128 0x7
 1351 0369 69010000 		.4byte	.LASF59
 1352 036d 01       		.byte	0x1
 1353 036e 32       		.byte	0x32
 1354 036f 1E       		.byte	0x1e
 1355 0370 03020000 		.4byte	0x203
 1356 0374 05       		.uleb128 0x5
 1357 0375 03       		.byte	0x3
 1358 0376 00000000 		.4byte	fft_inst
 1359 037a 16       		.uleb128 0x16
 1360 037b FE020000 		.4byte	.LASF65
 1361 037f 08       		.byte	0x8
 1362 0380 8801     		.2byte	0x188
 1363 0382 26000000 		.4byte	0x26
 1364 0386 90030000 		.4byte	0x390
 1365 038a 02       		.uleb128 0x2
ARM GAS  /tmp/cctFGGIe.s 			page 30


 1366 038b 26000000 		.4byte	0x26
 1367 038f 00       		.byte	0
 1368 0390 0E       		.uleb128 0xe
 1369 0391 23020000 		.4byte	.LASF60
 1370 0395 6D19     		.2byte	0x196d
 1371 0397 B0030000 		.4byte	0x3b0
 1372 039b 02       		.uleb128 0x2
 1373 039c 93010000 		.4byte	0x193
 1374 03a0 02       		.uleb128 0x2
 1375 03a1 FC000000 		.4byte	0xfc
 1376 03a5 02       		.uleb128 0x2
 1377 03a6 93010000 		.4byte	0x193
 1378 03aa 02       		.uleb128 0x2
 1379 03ab B0030000 		.4byte	0x3b0
 1380 03af 00       		.byte	0
 1381 03b0 0C       		.uleb128 0xc
 1382 03b1 FC000000 		.4byte	0xfc
 1383 03b5 0E       		.uleb128 0xe
 1384 03b6 03030000 		.4byte	.LASF61
 1385 03ba C018     		.2byte	0x18c0
 1386 03bc D0030000 		.4byte	0x3d0
 1387 03c0 02       		.uleb128 0x2
 1388 03c1 93010000 		.4byte	0x193
 1389 03c5 02       		.uleb128 0x2
 1390 03c6 93010000 		.4byte	0x193
 1391 03ca 02       		.uleb128 0x2
 1392 03cb FC000000 		.4byte	0xfc
 1393 03cf 00       		.byte	0
 1394 03d0 0E       		.uleb128 0xe
 1395 03d1 E0000000 		.4byte	.LASF62
 1396 03d5 AF07     		.2byte	0x7af
 1397 03d7 E6030000 		.4byte	0x3e6
 1398 03db 02       		.uleb128 0x2
 1399 03dc E6030000 		.4byte	0x3e6
 1400 03e0 02       		.uleb128 0x2
 1401 03e1 93010000 		.4byte	0x193
 1402 03e5 00       		.byte	0
 1403 03e6 0C       		.uleb128 0xc
 1404 03e7 0F020000 		.4byte	0x20f
 1405 03eb 0E       		.uleb128 0xe
 1406 03ec E3020000 		.4byte	.LASF63
 1407 03f0 800A     		.2byte	0xa80
 1408 03f2 0B040000 		.4byte	0x40b
 1409 03f6 02       		.uleb128 0x2
 1410 03f7 93010000 		.4byte	0x193
 1411 03fb 02       		.uleb128 0x2
 1412 03fc BB000000 		.4byte	0xbb
 1413 0400 02       		.uleb128 0x2
 1414 0401 93010000 		.4byte	0x193
 1415 0405 02       		.uleb128 0x2
 1416 0406 FC000000 		.4byte	0xfc
 1417 040a 00       		.byte	0
 1418 040b 0E       		.uleb128 0xe
 1419 040c 78030000 		.4byte	.LASF64
 1420 0410 1818     		.2byte	0x1818
 1421 0412 26040000 		.4byte	0x426
 1422 0416 02       		.uleb128 0x2
ARM GAS  /tmp/cctFGGIe.s 			page 31


 1423 0417 93010000 		.4byte	0x193
 1424 041b 02       		.uleb128 0x2
 1425 041c FC000000 		.4byte	0xfc
 1426 0420 02       		.uleb128 0x2
 1427 0421 93010000 		.4byte	0x193
 1428 0425 00       		.byte	0
 1429 0426 23       		.uleb128 0x23
 1430 0427 94010000 		.4byte	.LASF66
 1431 042b 09       		.byte	0x9
 1432 042c 21       		.byte	0x21
 1433 042d 09       		.byte	0x9
 1434 042e 1B010000 		.4byte	0x11b
 1435 0432 46040000 		.4byte	0x446
 1436 0436 02       		.uleb128 0x2
 1437 0437 1B010000 		.4byte	0x11b
 1438 043b 02       		.uleb128 0x2
 1439 043c B4000000 		.4byte	0xb4
 1440 0440 02       		.uleb128 0x2
 1441 0441 08010000 		.4byte	0x108
 1442 0445 00       		.byte	0
 1443 0446 17       		.uleb128 0x17
 1444 0447 2B010000 		.4byte	.LASF67
 1445 044b 0A       		.byte	0xa
 1446 044c 1A       		.byte	0x1a
 1447 044d 5C040000 		.4byte	0x45c
 1448 0451 02       		.uleb128 0x2
 1449 0452 FC000000 		.4byte	0xfc
 1450 0456 02       		.uleb128 0x2
 1451 0457 FC000000 		.4byte	0xfc
 1452 045b 00       		.byte	0
 1453 045c 17       		.uleb128 0x17
 1454 045d 74020000 		.4byte	.LASF68
 1455 0461 0B       		.byte	0xb
 1456 0462 15       		.byte	0x15
 1457 0463 6D040000 		.4byte	0x46d
 1458 0467 02       		.uleb128 0x2
 1459 0468 FC000000 		.4byte	0xfc
 1460 046c 00       		.byte	0
 1461 046d 0D       		.uleb128 0xd
 1462 046e A3000000 		.4byte	.LASF70
 1463 0472 06       		.byte	0x6
 1464 0473 1E       		.byte	0x1e
 1465 0474 16       		.uleb128 0x16
 1466 0475 15030000 		.4byte	.LASF69
 1467 0479 05       		.byte	0x5
 1468 047a A807     		.2byte	0x7a8
 1469 047c 65010000 		.4byte	0x165
 1470 0480 99040000 		.4byte	0x499
 1471 0484 02       		.uleb128 0x2
 1472 0485 99040000 		.4byte	0x499
 1473 0489 02       		.uleb128 0x2
 1474 048a E4000000 		.4byte	0xe4
 1475 048e 02       		.uleb128 0x2
 1476 048f C7000000 		.4byte	0xc7
 1477 0493 02       		.uleb128 0x2
 1478 0494 C7000000 		.4byte	0xc7
 1479 0498 00       		.byte	0
ARM GAS  /tmp/cctFGGIe.s 			page 32


 1480 0499 0C       		.uleb128 0xc
 1481 049a 03020000 		.4byte	0x203
 1482 049e 0D       		.uleb128 0xd
 1483 049f D7000000 		.4byte	.LASF71
 1484 04a3 0C       		.byte	0xc
 1485 04a4 1E       		.byte	0x1e
 1486 04a5 0D       		.uleb128 0xd
 1487 04a6 3A030000 		.4byte	.LASF72
 1488 04aa 06       		.byte	0x6
 1489 04ab 1C       		.byte	0x1c
 1490 04ac 0D       		.uleb128 0xd
 1491 04ad B8020000 		.4byte	.LASF73
 1492 04b1 0B       		.byte	0xb
 1493 04b2 14       		.byte	0x14
 1494 04b3 0D       		.uleb128 0xd
 1495 04b4 52020000 		.4byte	.LASF74
 1496 04b8 0A       		.byte	0xa
 1497 04b9 19       		.byte	0x19
 1498 04ba 0D       		.uleb128 0xd
 1499 04bb 16020000 		.4byte	.LASF75
 1500 04bf 0D       		.byte	0xd
 1501 04c0 13       		.byte	0x13
 1502 04c1 24       		.uleb128 0x24
 1503 04c2 CE010000 		.4byte	.LASF94
 1504 04c6 01       		.byte	0x1
 1505 04c7 59       		.byte	0x59
 1506 04c8 06       		.byte	0x6
 1507 04c9 00000000 		.4byte	.LFB122
 1508 04cd 28020000 		.4byte	.LFE122-.LFB122
 1509 04d1 01       		.uleb128 0x1
 1510 04d2 9C       		.byte	0x9c
 1511 04d3 DF070000 		.4byte	0x7df
 1512 04d7 13       		.uleb128 0x13
 1513 04d8 0C000000 		.4byte	.LLRL0
 1514 04dc F1040000 		.4byte	0x4f1
 1515 04e0 14       		.uleb128 0x14
 1516 04e1 6900     		.ascii	"i\000"
 1517 04e3 5C       		.byte	0x5c
 1518 04e4 E4000000 		.4byte	0xe4
 1519 04e8 12000000 		.4byte	.LLST1
 1520 04ec 0C000000 		.4byte	.LVUS1
 1521 04f0 00       		.byte	0
 1522 04f1 13       		.uleb128 0x13
 1523 04f2 1B000000 		.4byte	.LLRL2
 1524 04f6 50050000 		.4byte	0x550
 1525 04fa 14       		.uleb128 0x14
 1526 04fb 6900     		.ascii	"i\000"
 1527 04fd 68       		.byte	0x68
 1528 04fe E4000000 		.4byte	0xe4
 1529 0502 42000000 		.4byte	.LLST3
 1530 0506 3C000000 		.4byte	.LVUS3
 1531 050a 18       		.uleb128 0x18
 1532 050b 27000000 		.4byte	.LLRL4
 1533 050f 08       		.uleb128 0x8
 1534 0510 7B010000 		.4byte	.LASF76
 1535 0514 6B       		.byte	0x6b
 1536 0515 0F       		.byte	0xf
ARM GAS  /tmp/cctFGGIe.s 			page 33


 1537 0516 F0000000 		.4byte	0xf0
 1538 051a 5C000000 		.4byte	.LLST5
 1539 051e 5A000000 		.4byte	.LVUS5
 1540 0522 18       		.uleb128 0x18
 1541 0523 39000000 		.4byte	.LLRL6
 1542 0527 08       		.uleb128 0x8
 1543 0528 8E010000 		.4byte	.LASF77
 1544 052c 6C       		.byte	0x6c
 1545 052d 1E       		.byte	0x1e
 1546 052e FC000000 		.4byte	0xfc
 1547 0532 74000000 		.4byte	.LLST7
 1548 0536 72000000 		.4byte	.LVUS7
 1549 053a 08       		.uleb128 0x8
 1550 053b 0F020000 		.4byte	.LASF78
 1551 053f 6C       		.byte	0x6c
 1552 0540 1E       		.byte	0x1e
 1553 0541 FC000000 		.4byte	0xfc
 1554 0545 7F000000 		.4byte	.LLST8
 1555 0549 7D000000 		.4byte	.LVUS8
 1556 054d 00       		.byte	0
 1557 054e 00       		.byte	0
 1558 054f 00       		.byte	0
 1559 0550 25       		.uleb128 0x25
 1560 0551 AC000000 		.4byte	.LBB14
 1561 0555 26000000 		.4byte	.LBE14-.LBB14
 1562 0559 6E050000 		.4byte	0x56e
 1563 055d 14       		.uleb128 0x14
 1564 055e 6900     		.ascii	"i\000"
 1565 0560 78       		.byte	0x78
 1566 0561 E4000000 		.4byte	0xe4
 1567 0565 9D000000 		.4byte	.LLST9
 1568 0569 97000000 		.4byte	.LVUS9
 1569 056d 00       		.byte	0
 1570 056e 13       		.uleb128 0x13
 1571 056f 48000000 		.4byte	.LLRL10
 1572 0573 B5060000 		.4byte	0x6b5
 1573 0577 08       		.uleb128 0x8
 1574 0578 73000000 		.4byte	.LASF79
 1575 057c 8F       		.byte	0x8f
 1576 057d 11       		.byte	0x11
 1577 057e 82010000 		.4byte	0x182
 1578 0582 BB000000 		.4byte	.LLST11
 1579 0586 B5000000 		.4byte	.LVUS11
 1580 058a 08       		.uleb128 0x8
 1581 058b 8E030000 		.4byte	.LASF80
 1582 058f 8F       		.byte	0x8f
 1583 0590 18       		.byte	0x18
 1584 0591 82010000 		.4byte	0x182
 1585 0595 33010000 		.4byte	.LLST12
 1586 0599 2D010000 		.4byte	.LVUS12
 1587 059d 08       		.uleb128 0x8
 1588 059e 6B000000 		.4byte	.LASF81
 1589 05a2 90       		.byte	0x90
 1590 05a3 11       		.byte	0x11
 1591 05a4 82010000 		.4byte	0x182
 1592 05a8 DA010000 		.4byte	.LLST13
 1593 05ac D2010000 		.4byte	.LVUS13
ARM GAS  /tmp/cctFGGIe.s 			page 34


 1594 05b0 08       		.uleb128 0x8
 1595 05b1 25010000 		.4byte	.LASF82
 1596 05b5 92       		.byte	0x92
 1597 05b6 11       		.byte	0x11
 1598 05b7 82010000 		.4byte	0x182
 1599 05bb 0C020000 		.4byte	.LLST14
 1600 05bf 04020000 		.4byte	.LVUS14
 1601 05c3 08       		.uleb128 0x8
 1602 05c4 90040000 		.4byte	.LASF83
 1603 05c8 94       		.byte	0x94
 1604 05c9 11       		.byte	0x11
 1605 05ca 82010000 		.4byte	0x182
 1606 05ce 3C020000 		.4byte	.LLST15
 1607 05d2 36020000 		.4byte	.LVUS15
 1608 05d6 03       		.uleb128 0x3
 1609 05d7 48010000 		.4byte	.LVL23
 1610 05db A2080000 		.4byte	0x8a2
 1611 05df 03       		.uleb128 0x3
 1612 05e0 5A010000 		.4byte	.LVL26
 1613 05e4 A2080000 		.4byte	0x8a2
 1614 05e8 03       		.uleb128 0x3
 1615 05e9 6C010000 		.4byte	.LVL29
 1616 05ed A2080000 		.4byte	0x8a2
 1617 05f1 04       		.uleb128 0x4
 1618 05f2 74010000 		.4byte	.LVL31
 1619 05f6 7A030000 		.4byte	0x37a
 1620 05fa 06060000 		.4byte	0x606
 1621 05fe 01       		.uleb128 0x1
 1622 05ff 01       		.uleb128 0x1
 1623 0600 50       		.byte	0x50
 1624 0601 03       		.uleb128 0x3
 1625 0602 A5       		.byte	0xa5
 1626 0603 07       		.uleb128 0x7
 1627 0604 26       		.uleb128 0x26
 1628 0605 00       		.byte	0
 1629 0606 04       		.uleb128 0x4
 1630 0607 7C010000 		.4byte	.LVL32
 1631 060b 7A030000 		.4byte	0x37a
 1632 060f 1B060000 		.4byte	0x61b
 1633 0613 01       		.uleb128 0x1
 1634 0614 01       		.uleb128 0x1
 1635 0615 50       		.byte	0x50
 1636 0616 03       		.uleb128 0x3
 1637 0617 A5       		.byte	0xa5
 1638 0618 06       		.uleb128 0x6
 1639 0619 26       		.uleb128 0x26
 1640 061a 00       		.byte	0
 1641 061b 04       		.uleb128 0x4
 1642 061c 84010000 		.4byte	.LVL33
 1643 0620 7A030000 		.4byte	0x37a
 1644 0624 30060000 		.4byte	0x630
 1645 0628 01       		.uleb128 0x1
 1646 0629 01       		.uleb128 0x1
 1647 062a 50       		.byte	0x50
 1648 062b 03       		.uleb128 0x3
 1649 062c A5       		.byte	0xa5
 1650 062d 07       		.uleb128 0x7
ARM GAS  /tmp/cctFGGIe.s 			page 35


 1651 062e 26       		.uleb128 0x26
 1652 062f 00       		.byte	0
 1653 0630 04       		.uleb128 0x4
 1654 0631 8C010000 		.4byte	.LVL35
 1655 0635 7A030000 		.4byte	0x37a
 1656 0639 45060000 		.4byte	0x645
 1657 063d 01       		.uleb128 0x1
 1658 063e 01       		.uleb128 0x1
 1659 063f 50       		.byte	0x50
 1660 0640 03       		.uleb128 0x3
 1661 0641 A5       		.byte	0xa5
 1662 0642 08       		.uleb128 0x8
 1663 0643 26       		.uleb128 0x26
 1664 0644 00       		.byte	0
 1665 0645 04       		.uleb128 0x4
 1666 0646 94010000 		.4byte	.LVL37
 1667 064a 7A030000 		.4byte	0x37a
 1668 064e 5A060000 		.4byte	0x65a
 1669 0652 01       		.uleb128 0x1
 1670 0653 01       		.uleb128 0x1
 1671 0654 50       		.byte	0x50
 1672 0655 03       		.uleb128 0x3
 1673 0656 A5       		.byte	0xa5
 1674 0657 06       		.uleb128 0x6
 1675 0658 26       		.uleb128 0x26
 1676 0659 00       		.byte	0
 1677 065a 03       		.uleb128 0x3
 1678 065b 9E010000 		.4byte	.LVL40
 1679 065f AB080000 		.4byte	0x8ab
 1680 0663 03       		.uleb128 0x3
 1681 0664 A6010000 		.4byte	.LVL41
 1682 0668 B4080000 		.4byte	0x8b4
 1683 066c 03       		.uleb128 0x3
 1684 066d B0010000 		.4byte	.LVL43
 1685 0671 BD080000 		.4byte	0x8bd
 1686 0675 03       		.uleb128 0x3
 1687 0676 B8010000 		.4byte	.LVL44
 1688 067a AB080000 		.4byte	0x8ab
 1689 067e 03       		.uleb128 0x3
 1690 067f BE010000 		.4byte	.LVL45
 1691 0683 BD080000 		.4byte	0x8bd
 1692 0687 03       		.uleb128 0x3
 1693 0688 C6010000 		.4byte	.LVL46
 1694 068c C6080000 		.4byte	0x8c6
 1695 0690 03       		.uleb128 0x3
 1696 0691 CE010000 		.4byte	.LVL47
 1697 0695 CF080000 		.4byte	0x8cf
 1698 0699 03       		.uleb128 0x3
 1699 069a D6010000 		.4byte	.LVL48
 1700 069e BD080000 		.4byte	0x8bd
 1701 06a2 03       		.uleb128 0x3
 1702 06a3 DC010000 		.4byte	.LVL49
 1703 06a7 B4080000 		.4byte	0x8b4
 1704 06ab 03       		.uleb128 0x3
 1705 06ac E2010000 		.4byte	.LVL50
 1706 06b0 B4080000 		.4byte	0x8b4
 1707 06b4 00       		.byte	0
ARM GAS  /tmp/cctFGGIe.s 			page 36


 1708 06b5 04       		.uleb128 0x4
 1709 06b6 32000000 		.4byte	.LVL4
 1710 06ba D8080000 		.4byte	0x8d8
 1711 06be D9060000 		.4byte	0x6d9
 1712 06c2 01       		.uleb128 0x1
 1713 06c3 01       		.uleb128 0x1
 1714 06c4 50       		.byte	0x50
 1715 06c5 05       		.uleb128 0x5
 1716 06c6 03       		.byte	0x3
 1717 06c7 00040000 		.4byte	.LANCHOR0+1024
 1718 06cb 01       		.uleb128 0x1
 1719 06cc 01       		.uleb128 0x1
 1720 06cd 51       		.byte	0x51
 1721 06ce 02       		.uleb128 0x2
 1722 06cf 75       		.byte	0x75
 1723 06d0 00       		.sleb128 0
 1724 06d1 01       		.uleb128 0x1
 1725 06d2 01       		.uleb128 0x1
 1726 06d3 52       		.byte	0x52
 1727 06d4 03       		.uleb128 0x3
 1728 06d5 0A       		.byte	0xa
 1729 06d6 0004     		.2byte	0x400
 1730 06d8 00       		.byte	0
 1731 06d9 04       		.uleb128 0x4
 1732 06da 40000000 		.4byte	.LVL5
 1733 06de 0B040000 		.4byte	0x40b
 1734 06e2 00070000 		.4byte	0x700
 1735 06e6 01       		.uleb128 0x1
 1736 06e7 01       		.uleb128 0x1
 1737 06e8 50       		.byte	0x50
 1738 06e9 05       		.uleb128 0x5
 1739 06ea 03       		.byte	0x3
 1740 06eb 00000000 		.4byte	.LANCHOR0
 1741 06ef 01       		.uleb128 0x1
 1742 06f0 01       		.uleb128 0x1
 1743 06f1 51       		.byte	0x51
 1744 06f2 03       		.uleb128 0x3
 1745 06f3 0A       		.byte	0xa
 1746 06f4 0002     		.2byte	0x200
 1747 06f6 01       		.uleb128 0x1
 1748 06f7 01       		.uleb128 0x1
 1749 06f8 52       		.byte	0x52
 1750 06f9 05       		.uleb128 0x5
 1751 06fa 03       		.byte	0x3
 1752 06fb 00080000 		.4byte	.LANCHOR0+2048
 1753 06ff 00       		.byte	0
 1754 0700 04       		.uleb128 0x4
 1755 0701 88000000 		.4byte	.LVL13
 1756 0705 EB030000 		.4byte	0x3eb
 1757 0709 26070000 		.4byte	0x726
 1758 070d 01       		.uleb128 0x1
 1759 070e 01       		.uleb128 0x1
 1760 070f 50       		.byte	0x50
 1761 0710 02       		.uleb128 0x2
 1762 0711 74       		.byte	0x74
 1763 0712 00       		.sleb128 0
 1764 0713 01       		.uleb128 0x1
ARM GAS  /tmp/cctFGGIe.s 			page 37


 1765 0714 01       		.uleb128 0x1
 1766 0715 51       		.byte	0x51
 1767 0716 01       		.uleb128 0x1
 1768 0717 38       		.byte	0x38
 1769 0718 01       		.uleb128 0x1
 1770 0719 01       		.uleb128 0x1
 1771 071a 52       		.byte	0x52
 1772 071b 02       		.uleb128 0x2
 1773 071c 74       		.byte	0x74
 1774 071d 00       		.sleb128 0
 1775 071e 01       		.uleb128 0x1
 1776 071f 01       		.uleb128 0x1
 1777 0720 53       		.byte	0x53
 1778 0721 03       		.uleb128 0x3
 1779 0722 0A       		.byte	0xa
 1780 0723 0004     		.2byte	0x400
 1781 0725 00       		.byte	0
 1782 0726 04       		.uleb128 0x4
 1783 0727 92000000 		.4byte	.LVL14
 1784 072b D0030000 		.4byte	0x3d0
 1785 072f 41070000 		.4byte	0x741
 1786 0733 01       		.uleb128 0x1
 1787 0734 01       		.uleb128 0x1
 1788 0735 50       		.byte	0x50
 1789 0736 03       		.uleb128 0x3
 1790 0737 74       		.byte	0x74
 1791 0738 8410     		.sleb128 2052
 1792 073a 01       		.uleb128 0x1
 1793 073b 01       		.uleb128 0x1
 1794 073c 51       		.byte	0x51
 1795 073d 02       		.uleb128 0x2
 1796 073e 74       		.byte	0x74
 1797 073f 00       		.sleb128 0
 1798 0740 00       		.byte	0
 1799 0741 04       		.uleb128 0x4
 1800 0742 9E000000 		.4byte	.LVL15
 1801 0746 B5030000 		.4byte	0x3b5
 1802 074a 67070000 		.4byte	0x767
 1803 074e 01       		.uleb128 0x1
 1804 074f 01       		.uleb128 0x1
 1805 0750 50       		.byte	0x50
 1806 0751 05       		.uleb128 0x5
 1807 0752 03       		.byte	0x3
 1808 0753 00000000 		.4byte	.LANCHOR0
 1809 0757 01       		.uleb128 0x1
 1810 0758 01       		.uleb128 0x1
 1811 0759 51       		.byte	0x51
 1812 075a 05       		.uleb128 0x5
 1813 075b 03       		.byte	0x3
 1814 075c 14080000 		.4byte	.LANCHOR0+2068
 1815 0760 01       		.uleb128 0x1
 1816 0761 01       		.uleb128 0x1
 1817 0762 52       		.byte	0x52
 1818 0763 02       		.uleb128 0x2
 1819 0764 75       		.byte	0x75
 1820 0765 00       		.sleb128 0
 1821 0766 00       		.byte	0
ARM GAS  /tmp/cctFGGIe.s 			page 38


 1822 0767 04       		.uleb128 0x4
 1823 0768 AC000000 		.4byte	.LVL16
 1824 076c 0B040000 		.4byte	0x40b
 1825 0770 8E070000 		.4byte	0x78e
 1826 0774 01       		.uleb128 0x1
 1827 0775 01       		.uleb128 0x1
 1828 0776 50       		.byte	0x50
 1829 0777 05       		.uleb128 0x5
 1830 0778 03       		.byte	0x3
 1831 0779 14080000 		.4byte	.LANCHOR0+2068
 1832 077d 01       		.uleb128 0x1
 1833 077e 01       		.uleb128 0x1
 1834 077f 51       		.byte	0x51
 1835 0780 03       		.uleb128 0x3
 1836 0781 0A       		.byte	0xa
 1837 0782 0001     		.2byte	0x100
 1838 0784 01       		.uleb128 0x1
 1839 0785 01       		.uleb128 0x1
 1840 0786 52       		.byte	0x52
 1841 0787 05       		.uleb128 0x5
 1842 0788 03       		.byte	0x3
 1843 0789 140C0000 		.4byte	.LANCHOR0+3092
 1844 078d 00       		.byte	0
 1845 078e 04       		.uleb128 0x4
 1846 078f E6000000 		.4byte	.LVL20
 1847 0793 D8080000 		.4byte	0x8d8
 1848 0797 B2070000 		.4byte	0x7b2
 1849 079b 01       		.uleb128 0x1
 1850 079c 01       		.uleb128 0x1
 1851 079d 50       		.byte	0x50
 1852 079e 05       		.uleb128 0x5
 1853 079f 03       		.byte	0x3
 1854 07a0 78080000 		.4byte	.LANCHOR0+2168
 1855 07a4 01       		.uleb128 0x1
 1856 07a5 01       		.uleb128 0x1
 1857 07a6 51       		.byte	0x51
 1858 07a7 02       		.uleb128 0x2
 1859 07a8 75       		.byte	0x75
 1860 07a9 00       		.sleb128 0
 1861 07aa 01       		.uleb128 0x1
 1862 07ab 01       		.uleb128 0x1
 1863 07ac 52       		.byte	0x52
 1864 07ad 03       		.uleb128 0x3
 1865 07ae 0A       		.byte	0xa
 1866 07af 9C03     		.2byte	0x39c
 1867 07b1 00       		.byte	0
 1868 07b2 19       		.uleb128 0x19
 1869 07b3 F6000000 		.4byte	.LVL21
 1870 07b7 90030000 		.4byte	0x390
 1871 07bb 01       		.uleb128 0x1
 1872 07bc 01       		.uleb128 0x1
 1873 07bd 50       		.byte	0x50
 1874 07be 05       		.uleb128 0x5
 1875 07bf 03       		.byte	0x3
 1876 07c0 14080000 		.4byte	.LANCHOR0+2068
 1877 07c4 01       		.uleb128 0x1
 1878 07c5 01       		.uleb128 0x1
ARM GAS  /tmp/cctFGGIe.s 			page 39


 1879 07c6 51       		.byte	0x51
 1880 07c7 03       		.uleb128 0x3
 1881 07c8 0A       		.byte	0xa
 1882 07c9 0001     		.2byte	0x100
 1883 07cb 01       		.uleb128 0x1
 1884 07cc 01       		.uleb128 0x1
 1885 07cd 52       		.byte	0x52
 1886 07ce 05       		.uleb128 0x5
 1887 07cf 03       		.byte	0x3
 1888 07d0 1C0C0000 		.4byte	.LANCHOR0+3100
 1889 07d4 01       		.uleb128 0x1
 1890 07d5 01       		.uleb128 0x1
 1891 07d6 53       		.byte	0x53
 1892 07d7 05       		.uleb128 0x5
 1893 07d8 03       		.byte	0x3
 1894 07d9 180C0000 		.4byte	.LANCHOR0+3096
 1895 07dd 00       		.byte	0
 1896 07de 00       		.byte	0
 1897 07df 26       		.uleb128 0x26
 1898 07e0 8A000000 		.4byte	.LASF95
 1899 07e4 01       		.byte	0x1
 1900 07e5 38       		.byte	0x38
 1901 07e6 05       		.byte	0x5
 1902 07e7 B4000000 		.4byte	0xb4
 1903 07eb 00000000 		.4byte	.LFB121
 1904 07ef 68000000 		.4byte	.LFE121-.LFB121
 1905 07f3 01       		.uleb128 0x1
 1906 07f4 9C       		.byte	0x9c
 1907 07f5 A2080000 		.4byte	0x8a2
 1908 07f9 03       		.uleb128 0x3
 1909 07fa 06000000 		.4byte	.LVL55
 1910 07fe BA040000 		.4byte	0x4ba
 1911 0802 03       		.uleb128 0x3
 1912 0803 0A000000 		.4byte	.LVL56
 1913 0807 B3040000 		.4byte	0x4b3
 1914 080b 03       		.uleb128 0x3
 1915 080c 0E000000 		.4byte	.LVL57
 1916 0810 AC040000 		.4byte	0x4ac
 1917 0814 03       		.uleb128 0x3
 1918 0815 12000000 		.4byte	.LVL58
 1919 0819 A5040000 		.4byte	0x4a5
 1920 081d 03       		.uleb128 0x3
 1921 081e 16000000 		.4byte	.LVL59
 1922 0822 9E040000 		.4byte	0x49e
 1923 0826 04       		.uleb128 0x4
 1924 0827 24000000 		.4byte	.LVL60
 1925 082b 74040000 		.4byte	0x474
 1926 082f 4E080000 		.4byte	0x84e
 1927 0833 01       		.uleb128 0x1
 1928 0834 01       		.uleb128 0x1
 1929 0835 50       		.byte	0x50
 1930 0836 05       		.uleb128 0x5
 1931 0837 03       		.byte	0x3
 1932 0838 04080000 		.4byte	.LANCHOR0+2052
 1933 083c 01       		.uleb128 0x1
 1934 083d 01       		.uleb128 0x1
 1935 083e 51       		.byte	0x51
ARM GAS  /tmp/cctFGGIe.s 			page 40


 1936 083f 03       		.uleb128 0x3
 1937 0840 0A       		.byte	0xa
 1938 0841 0002     		.2byte	0x200
 1939 0843 01       		.uleb128 0x1
 1940 0844 01       		.uleb128 0x1
 1941 0845 52       		.byte	0x52
 1942 0846 01       		.uleb128 0x1
 1943 0847 30       		.byte	0x30
 1944 0848 01       		.uleb128 0x1
 1945 0849 01       		.uleb128 0x1
 1946 084a 53       		.byte	0x53
 1947 084b 01       		.uleb128 0x1
 1948 084c 31       		.byte	0x31
 1949 084d 00       		.byte	0
 1950 084e 03       		.uleb128 0x3
 1951 084f 34000000 		.4byte	.LVL61
 1952 0853 C1040000 		.4byte	0x4c1
 1953 0857 03       		.uleb128 0x3
 1954 0858 38000000 		.4byte	.LVL62
 1955 085c 6D040000 		.4byte	0x46d
 1956 0860 04       		.uleb128 0x4
 1957 0861 40000000 		.4byte	.LVL63
 1958 0865 5C040000 		.4byte	0x45c
 1959 0869 74080000 		.4byte	0x874
 1960 086d 01       		.uleb128 0x1
 1961 086e 01       		.uleb128 0x1
 1962 086f 50       		.byte	0x50
 1963 0870 02       		.uleb128 0x2
 1964 0871 08       		.byte	0x8
 1965 0872 32       		.byte	0x32
 1966 0873 00       		.byte	0
 1967 0874 03       		.uleb128 0x3
 1968 0875 4C000000 		.4byte	.LVL64
 1969 0879 E3080000 		.4byte	0x8e3
 1970 087d 04       		.uleb128 0x4
 1971 087e 54000000 		.4byte	.LVL65
 1972 0882 46040000 		.4byte	0x446
 1973 0886 91080000 		.4byte	0x891
 1974 088a 01       		.uleb128 0x1
 1975 088b 01       		.uleb128 0x1
 1976 088c 51       		.byte	0x51
 1977 088d 02       		.uleb128 0x2
 1978 088e 74       		.byte	0x74
 1979 088f 00       		.sleb128 0
 1980 0890 00       		.byte	0
 1981 0891 19       		.uleb128 0x19
 1982 0892 5A000000 		.4byte	.LVL66
 1983 0896 5C040000 		.4byte	0x45c
 1984 089a 01       		.uleb128 0x1
 1985 089b 01       		.uleb128 0x1
 1986 089c 50       		.byte	0x50
 1987 089d 02       		.uleb128 0x2
 1988 089e 08       		.byte	0x8
 1989 089f 32       		.byte	0x32
 1990 08a0 00       		.byte	0
 1991 08a1 00       		.byte	0
 1992 08a2 0A       		.uleb128 0xa
ARM GAS  /tmp/cctFGGIe.s 			page 41


 1993 08a3 DA010000 		.4byte	.LASF84
 1994 08a7 DA010000 		.4byte	.LASF84
 1995 08ab 0A       		.uleb128 0xa
 1996 08ac 56010000 		.4byte	.LASF85
 1997 08b0 56010000 		.4byte	.LASF85
 1998 08b4 0A       		.uleb128 0xa
 1999 08b5 09000000 		.4byte	.LASF86
 2000 08b9 09000000 		.4byte	.LASF86
 2001 08bd 0A       		.uleb128 0xa
 2002 08be EC030000 		.4byte	.LASF87
 2003 08c2 EC030000 		.4byte	.LASF87
 2004 08c6 0A       		.uleb128 0xa
 2005 08c7 83040000 		.4byte	.LASF88
 2006 08cb 83040000 		.4byte	.LASF88
 2007 08cf 0A       		.uleb128 0xa
 2008 08d0 E6010000 		.4byte	.LASF89
 2009 08d4 E6010000 		.4byte	.LASF89
 2010 08d8 27       		.uleb128 0x27
 2011 08d9 94010000 		.4byte	.LASF66
 2012 08dd F4000000 		.4byte	.LASF96
 2013 08e1 0E       		.byte	0xe
 2014 08e2 00       		.byte	0
 2015 08e3 0A       		.uleb128 0xa
 2016 08e4 F3010000 		.4byte	.LASF90
 2017 08e8 F3010000 		.4byte	.LASF90
 2018 08ec 00       		.byte	0
 2019              		.section	.debug_abbrev,"",%progbits
 2020              	.Ldebug_abbrev0:
 2021 0000 01       		.uleb128 0x1
 2022 0001 49       		.uleb128 0x49
 2023 0002 00       		.byte	0
 2024 0003 02       		.uleb128 0x2
 2025 0004 18       		.uleb128 0x18
 2026 0005 7E       		.uleb128 0x7e
 2027 0006 18       		.uleb128 0x18
 2028 0007 00       		.byte	0
 2029 0008 00       		.byte	0
 2030 0009 02       		.uleb128 0x2
 2031 000a 05       		.uleb128 0x5
 2032 000b 00       		.byte	0
 2033 000c 49       		.uleb128 0x49
 2034 000d 13       		.uleb128 0x13
 2035 000e 00       		.byte	0
 2036 000f 00       		.byte	0
 2037 0010 03       		.uleb128 0x3
 2038 0011 48       		.uleb128 0x48
 2039 0012 00       		.byte	0
 2040 0013 7D       		.uleb128 0x7d
 2041 0014 01       		.uleb128 0x1
 2042 0015 7F       		.uleb128 0x7f
 2043 0016 13       		.uleb128 0x13
 2044 0017 00       		.byte	0
 2045 0018 00       		.byte	0
 2046 0019 04       		.uleb128 0x4
 2047 001a 48       		.uleb128 0x48
 2048 001b 01       		.byte	0x1
 2049 001c 7D       		.uleb128 0x7d
ARM GAS  /tmp/cctFGGIe.s 			page 42


 2050 001d 01       		.uleb128 0x1
 2051 001e 7F       		.uleb128 0x7f
 2052 001f 13       		.uleb128 0x13
 2053 0020 01       		.uleb128 0x1
 2054 0021 13       		.uleb128 0x13
 2055 0022 00       		.byte	0
 2056 0023 00       		.byte	0
 2057 0024 05       		.uleb128 0x5
 2058 0025 24       		.uleb128 0x24
 2059 0026 00       		.byte	0
 2060 0027 0B       		.uleb128 0xb
 2061 0028 0B       		.uleb128 0xb
 2062 0029 3E       		.uleb128 0x3e
 2063 002a 0B       		.uleb128 0xb
 2064 002b 03       		.uleb128 0x3
 2065 002c 0E       		.uleb128 0xe
 2066 002d 00       		.byte	0
 2067 002e 00       		.byte	0
 2068 002f 06       		.uleb128 0x6
 2069 0030 16       		.uleb128 0x16
 2070 0031 00       		.byte	0
 2071 0032 03       		.uleb128 0x3
 2072 0033 0E       		.uleb128 0xe
 2073 0034 3A       		.uleb128 0x3a
 2074 0035 0B       		.uleb128 0xb
 2075 0036 3B       		.uleb128 0x3b
 2076 0037 0B       		.uleb128 0xb
 2077 0038 39       		.uleb128 0x39
 2078 0039 0B       		.uleb128 0xb
 2079 003a 49       		.uleb128 0x49
 2080 003b 13       		.uleb128 0x13
 2081 003c 00       		.byte	0
 2082 003d 00       		.byte	0
 2083 003e 07       		.uleb128 0x7
 2084 003f 34       		.uleb128 0x34
 2085 0040 00       		.byte	0
 2086 0041 03       		.uleb128 0x3
 2087 0042 0E       		.uleb128 0xe
 2088 0043 3A       		.uleb128 0x3a
 2089 0044 0B       		.uleb128 0xb
 2090 0045 3B       		.uleb128 0x3b
 2091 0046 0B       		.uleb128 0xb
 2092 0047 39       		.uleb128 0x39
 2093 0048 0B       		.uleb128 0xb
 2094 0049 49       		.uleb128 0x49
 2095 004a 13       		.uleb128 0x13
 2096 004b 3F       		.uleb128 0x3f
 2097 004c 19       		.uleb128 0x19
 2098 004d 02       		.uleb128 0x2
 2099 004e 18       		.uleb128 0x18
 2100 004f 00       		.byte	0
 2101 0050 00       		.byte	0
 2102 0051 08       		.uleb128 0x8
 2103 0052 34       		.uleb128 0x34
 2104 0053 00       		.byte	0
 2105 0054 03       		.uleb128 0x3
 2106 0055 0E       		.uleb128 0xe
ARM GAS  /tmp/cctFGGIe.s 			page 43


 2107 0056 3A       		.uleb128 0x3a
 2108 0057 21       		.uleb128 0x21
 2109 0058 01       		.sleb128 1
 2110 0059 3B       		.uleb128 0x3b
 2111 005a 0B       		.uleb128 0xb
 2112 005b 39       		.uleb128 0x39
 2113 005c 0B       		.uleb128 0xb
 2114 005d 49       		.uleb128 0x49
 2115 005e 13       		.uleb128 0x13
 2116 005f 02       		.uleb128 0x2
 2117 0060 17       		.uleb128 0x17
 2118 0061 B742     		.uleb128 0x2137
 2119 0063 17       		.uleb128 0x17
 2120 0064 00       		.byte	0
 2121 0065 00       		.byte	0
 2122 0066 09       		.uleb128 0x9
 2123 0067 0D       		.uleb128 0xd
 2124 0068 00       		.byte	0
 2125 0069 03       		.uleb128 0x3
 2126 006a 0E       		.uleb128 0xe
 2127 006b 3A       		.uleb128 0x3a
 2128 006c 21       		.uleb128 0x21
 2129 006d 05       		.sleb128 5
 2130 006e 3B       		.uleb128 0x3b
 2131 006f 05       		.uleb128 0x5
 2132 0070 39       		.uleb128 0x39
 2133 0071 0B       		.uleb128 0xb
 2134 0072 49       		.uleb128 0x49
 2135 0073 13       		.uleb128 0x13
 2136 0074 38       		.uleb128 0x38
 2137 0075 0B       		.uleb128 0xb
 2138 0076 00       		.byte	0
 2139 0077 00       		.byte	0
 2140 0078 0A       		.uleb128 0xa
 2141 0079 2E       		.uleb128 0x2e
 2142 007a 00       		.byte	0
 2143 007b 3F       		.uleb128 0x3f
 2144 007c 19       		.uleb128 0x19
 2145 007d 3C       		.uleb128 0x3c
 2146 007e 19       		.uleb128 0x19
 2147 007f 6E       		.uleb128 0x6e
 2148 0080 0E       		.uleb128 0xe
 2149 0081 03       		.uleb128 0x3
 2150 0082 0E       		.uleb128 0xe
 2151 0083 00       		.byte	0
 2152 0084 00       		.byte	0
 2153 0085 0B       		.uleb128 0xb
 2154 0086 28       		.uleb128 0x28
 2155 0087 00       		.byte	0
 2156 0088 03       		.uleb128 0x3
 2157 0089 0E       		.uleb128 0xe
 2158 008a 1C       		.uleb128 0x1c
 2159 008b 0D       		.uleb128 0xd
 2160 008c 00       		.byte	0
 2161 008d 00       		.byte	0
 2162 008e 0C       		.uleb128 0xc
 2163 008f 0F       		.uleb128 0xf
ARM GAS  /tmp/cctFGGIe.s 			page 44


 2164 0090 00       		.byte	0
 2165 0091 0B       		.uleb128 0xb
 2166 0092 21       		.uleb128 0x21
 2167 0093 04       		.sleb128 4
 2168 0094 49       		.uleb128 0x49
 2169 0095 13       		.uleb128 0x13
 2170 0096 00       		.byte	0
 2171 0097 00       		.byte	0
 2172 0098 0D       		.uleb128 0xd
 2173 0099 2E       		.uleb128 0x2e
 2174 009a 00       		.byte	0
 2175 009b 3F       		.uleb128 0x3f
 2176 009c 19       		.uleb128 0x19
 2177 009d 03       		.uleb128 0x3
 2178 009e 0E       		.uleb128 0xe
 2179 009f 3A       		.uleb128 0x3a
 2180 00a0 0B       		.uleb128 0xb
 2181 00a1 3B       		.uleb128 0x3b
 2182 00a2 0B       		.uleb128 0xb
 2183 00a3 39       		.uleb128 0x39
 2184 00a4 21       		.uleb128 0x21
 2185 00a5 06       		.sleb128 6
 2186 00a6 27       		.uleb128 0x27
 2187 00a7 19       		.uleb128 0x19
 2188 00a8 3C       		.uleb128 0x3c
 2189 00a9 19       		.uleb128 0x19
 2190 00aa 00       		.byte	0
 2191 00ab 00       		.byte	0
 2192 00ac 0E       		.uleb128 0xe
 2193 00ad 2E       		.uleb128 0x2e
 2194 00ae 01       		.byte	0x1
 2195 00af 3F       		.uleb128 0x3f
 2196 00b0 19       		.uleb128 0x19
 2197 00b1 03       		.uleb128 0x3
 2198 00b2 0E       		.uleb128 0xe
 2199 00b3 3A       		.uleb128 0x3a
 2200 00b4 21       		.uleb128 0x21
 2201 00b5 05       		.sleb128 5
 2202 00b6 3B       		.uleb128 0x3b
 2203 00b7 05       		.uleb128 0x5
 2204 00b8 39       		.uleb128 0x39
 2205 00b9 21       		.uleb128 0x21
 2206 00ba 08       		.sleb128 8
 2207 00bb 27       		.uleb128 0x27
 2208 00bc 19       		.uleb128 0x19
 2209 00bd 3C       		.uleb128 0x3c
 2210 00be 19       		.uleb128 0x19
 2211 00bf 01       		.uleb128 0x1
 2212 00c0 13       		.uleb128 0x13
 2213 00c1 00       		.byte	0
 2214 00c2 00       		.byte	0
 2215 00c3 0F       		.uleb128 0xf
 2216 00c4 35       		.uleb128 0x35
 2217 00c5 00       		.byte	0
 2218 00c6 49       		.uleb128 0x49
 2219 00c7 13       		.uleb128 0x13
 2220 00c8 00       		.byte	0
ARM GAS  /tmp/cctFGGIe.s 			page 45


 2221 00c9 00       		.byte	0
 2222 00ca 10       		.uleb128 0x10
 2223 00cb 16       		.uleb128 0x16
 2224 00cc 00       		.byte	0
 2225 00cd 03       		.uleb128 0x3
 2226 00ce 0E       		.uleb128 0xe
 2227 00cf 3A       		.uleb128 0x3a
 2228 00d0 21       		.uleb128 0x21
 2229 00d1 05       		.sleb128 5
 2230 00d2 3B       		.uleb128 0x3b
 2231 00d3 05       		.uleb128 0x5
 2232 00d4 39       		.uleb128 0x39
 2233 00d5 0B       		.uleb128 0xb
 2234 00d6 49       		.uleb128 0x49
 2235 00d7 13       		.uleb128 0x13
 2236 00d8 00       		.byte	0
 2237 00d9 00       		.byte	0
 2238 00da 11       		.uleb128 0x11
 2239 00db 01       		.uleb128 0x1
 2240 00dc 01       		.byte	0x1
 2241 00dd 49       		.uleb128 0x49
 2242 00de 13       		.uleb128 0x13
 2243 00df 01       		.uleb128 0x1
 2244 00e0 13       		.uleb128 0x13
 2245 00e1 00       		.byte	0
 2246 00e2 00       		.byte	0
 2247 00e3 12       		.uleb128 0x12
 2248 00e4 21       		.uleb128 0x21
 2249 00e5 00       		.byte	0
 2250 00e6 49       		.uleb128 0x49
 2251 00e7 13       		.uleb128 0x13
 2252 00e8 2F       		.uleb128 0x2f
 2253 00e9 05       		.uleb128 0x5
 2254 00ea 00       		.byte	0
 2255 00eb 00       		.byte	0
 2256 00ec 13       		.uleb128 0x13
 2257 00ed 0B       		.uleb128 0xb
 2258 00ee 01       		.byte	0x1
 2259 00ef 55       		.uleb128 0x55
 2260 00f0 17       		.uleb128 0x17
 2261 00f1 01       		.uleb128 0x1
 2262 00f2 13       		.uleb128 0x13
 2263 00f3 00       		.byte	0
 2264 00f4 00       		.byte	0
 2265 00f5 14       		.uleb128 0x14
 2266 00f6 34       		.uleb128 0x34
 2267 00f7 00       		.byte	0
 2268 00f8 03       		.uleb128 0x3
 2269 00f9 08       		.uleb128 0x8
 2270 00fa 3A       		.uleb128 0x3a
 2271 00fb 21       		.uleb128 0x21
 2272 00fc 01       		.sleb128 1
 2273 00fd 3B       		.uleb128 0x3b
 2274 00fe 0B       		.uleb128 0xb
 2275 00ff 39       		.uleb128 0x39
 2276 0100 21       		.uleb128 0x21
 2277 0101 12       		.sleb128 18
ARM GAS  /tmp/cctFGGIe.s 			page 46


 2278 0102 49       		.uleb128 0x49
 2279 0103 13       		.uleb128 0x13
 2280 0104 02       		.uleb128 0x2
 2281 0105 17       		.uleb128 0x17
 2282 0106 B742     		.uleb128 0x2137
 2283 0108 17       		.uleb128 0x17
 2284 0109 00       		.byte	0
 2285 010a 00       		.byte	0
 2286 010b 15       		.uleb128 0x15
 2287 010c 34       		.uleb128 0x34
 2288 010d 00       		.byte	0
 2289 010e 03       		.uleb128 0x3
 2290 010f 0E       		.uleb128 0xe
 2291 0110 3A       		.uleb128 0x3a
 2292 0111 21       		.uleb128 0x21
 2293 0112 06       		.sleb128 6
 2294 0113 3B       		.uleb128 0x3b
 2295 0114 0B       		.uleb128 0xb
 2296 0115 39       		.uleb128 0x39
 2297 0116 0B       		.uleb128 0xb
 2298 0117 49       		.uleb128 0x49
 2299 0118 13       		.uleb128 0x13
 2300 0119 3F       		.uleb128 0x3f
 2301 011a 19       		.uleb128 0x19
 2302 011b 3C       		.uleb128 0x3c
 2303 011c 19       		.uleb128 0x19
 2304 011d 00       		.byte	0
 2305 011e 00       		.byte	0
 2306 011f 16       		.uleb128 0x16
 2307 0120 2E       		.uleb128 0x2e
 2308 0121 01       		.byte	0x1
 2309 0122 3F       		.uleb128 0x3f
 2310 0123 19       		.uleb128 0x19
 2311 0124 03       		.uleb128 0x3
 2312 0125 0E       		.uleb128 0xe
 2313 0126 3A       		.uleb128 0x3a
 2314 0127 0B       		.uleb128 0xb
 2315 0128 3B       		.uleb128 0x3b
 2316 0129 05       		.uleb128 0x5
 2317 012a 39       		.uleb128 0x39
 2318 012b 21       		.uleb128 0x21
 2319 012c 0E       		.sleb128 14
 2320 012d 27       		.uleb128 0x27
 2321 012e 19       		.uleb128 0x19
 2322 012f 49       		.uleb128 0x49
 2323 0130 13       		.uleb128 0x13
 2324 0131 3C       		.uleb128 0x3c
 2325 0132 19       		.uleb128 0x19
 2326 0133 01       		.uleb128 0x1
 2327 0134 13       		.uleb128 0x13
 2328 0135 00       		.byte	0
 2329 0136 00       		.byte	0
 2330 0137 17       		.uleb128 0x17
 2331 0138 2E       		.uleb128 0x2e
 2332 0139 01       		.byte	0x1
 2333 013a 3F       		.uleb128 0x3f
 2334 013b 19       		.uleb128 0x19
ARM GAS  /tmp/cctFGGIe.s 			page 47


 2335 013c 03       		.uleb128 0x3
 2336 013d 0E       		.uleb128 0xe
 2337 013e 3A       		.uleb128 0x3a
 2338 013f 0B       		.uleb128 0xb
 2339 0140 3B       		.uleb128 0x3b
 2340 0141 0B       		.uleb128 0xb
 2341 0142 39       		.uleb128 0x39
 2342 0143 21       		.uleb128 0x21
 2343 0144 06       		.sleb128 6
 2344 0145 27       		.uleb128 0x27
 2345 0146 19       		.uleb128 0x19
 2346 0147 3C       		.uleb128 0x3c
 2347 0148 19       		.uleb128 0x19
 2348 0149 01       		.uleb128 0x1
 2349 014a 13       		.uleb128 0x13
 2350 014b 00       		.byte	0
 2351 014c 00       		.byte	0
 2352 014d 18       		.uleb128 0x18
 2353 014e 0B       		.uleb128 0xb
 2354 014f 01       		.byte	0x1
 2355 0150 55       		.uleb128 0x55
 2356 0151 17       		.uleb128 0x17
 2357 0152 00       		.byte	0
 2358 0153 00       		.byte	0
 2359 0154 19       		.uleb128 0x19
 2360 0155 48       		.uleb128 0x48
 2361 0156 01       		.byte	0x1
 2362 0157 7D       		.uleb128 0x7d
 2363 0158 01       		.uleb128 0x1
 2364 0159 7F       		.uleb128 0x7f
 2365 015a 13       		.uleb128 0x13
 2366 015b 00       		.byte	0
 2367 015c 00       		.byte	0
 2368 015d 1A       		.uleb128 0x1a
 2369 015e 11       		.uleb128 0x11
 2370 015f 01       		.byte	0x1
 2371 0160 25       		.uleb128 0x25
 2372 0161 0E       		.uleb128 0xe
 2373 0162 13       		.uleb128 0x13
 2374 0163 0B       		.uleb128 0xb
 2375 0164 03       		.uleb128 0x3
 2376 0165 0E       		.uleb128 0xe
 2377 0166 1B       		.uleb128 0x1b
 2378 0167 0E       		.uleb128 0xe
 2379 0168 55       		.uleb128 0x55
 2380 0169 17       		.uleb128 0x17
 2381 016a 11       		.uleb128 0x11
 2382 016b 01       		.uleb128 0x1
 2383 016c 10       		.uleb128 0x10
 2384 016d 17       		.uleb128 0x17
 2385 016e 00       		.byte	0
 2386 016f 00       		.byte	0
 2387 0170 1B       		.uleb128 0x1b
 2388 0171 24       		.uleb128 0x24
 2389 0172 00       		.byte	0
 2390 0173 0B       		.uleb128 0xb
 2391 0174 0B       		.uleb128 0xb
ARM GAS  /tmp/cctFGGIe.s 			page 48


 2392 0175 3E       		.uleb128 0x3e
 2393 0176 0B       		.uleb128 0xb
 2394 0177 03       		.uleb128 0x3
 2395 0178 08       		.uleb128 0x8
 2396 0179 00       		.byte	0
 2397 017a 00       		.byte	0
 2398 017b 1C       		.uleb128 0x1c
 2399 017c 0F       		.uleb128 0xf
 2400 017d 00       		.byte	0
 2401 017e 0B       		.uleb128 0xb
 2402 017f 0B       		.uleb128 0xb
 2403 0180 00       		.byte	0
 2404 0181 00       		.byte	0
 2405 0182 1D       		.uleb128 0x1d
 2406 0183 04       		.uleb128 0x4
 2407 0184 01       		.byte	0x1
 2408 0185 3E       		.uleb128 0x3e
 2409 0186 0B       		.uleb128 0xb
 2410 0187 0B       		.uleb128 0xb
 2411 0188 0B       		.uleb128 0xb
 2412 0189 49       		.uleb128 0x49
 2413 018a 13       		.uleb128 0x13
 2414 018b 3A       		.uleb128 0x3a
 2415 018c 0B       		.uleb128 0xb
 2416 018d 3B       		.uleb128 0x3b
 2417 018e 05       		.uleb128 0x5
 2418 018f 39       		.uleb128 0x39
 2419 0190 0B       		.uleb128 0xb
 2420 0191 01       		.uleb128 0x1
 2421 0192 13       		.uleb128 0x13
 2422 0193 00       		.byte	0
 2423 0194 00       		.byte	0
 2424 0195 1E       		.uleb128 0x1e
 2425 0196 28       		.uleb128 0x28
 2426 0197 00       		.byte	0
 2427 0198 03       		.uleb128 0x3
 2428 0199 0E       		.uleb128 0xe
 2429 019a 1C       		.uleb128 0x1c
 2430 019b 0B       		.uleb128 0xb
 2431 019c 00       		.byte	0
 2432 019d 00       		.byte	0
 2433 019e 1F       		.uleb128 0x1f
 2434 019f 13       		.uleb128 0x13
 2435 01a0 01       		.byte	0x1
 2436 01a1 0B       		.uleb128 0xb
 2437 01a2 0B       		.uleb128 0xb
 2438 01a3 3A       		.uleb128 0x3a
 2439 01a4 0B       		.uleb128 0xb
 2440 01a5 3B       		.uleb128 0x3b
 2441 01a6 05       		.uleb128 0x5
 2442 01a7 39       		.uleb128 0x39
 2443 01a8 0B       		.uleb128 0xb
 2444 01a9 01       		.uleb128 0x1
 2445 01aa 13       		.uleb128 0x13
 2446 01ab 00       		.byte	0
 2447 01ac 00       		.byte	0
 2448 01ad 20       		.uleb128 0x20
ARM GAS  /tmp/cctFGGIe.s 			page 49


 2449 01ae 26       		.uleb128 0x26
 2450 01af 00       		.byte	0
 2451 01b0 49       		.uleb128 0x49
 2452 01b1 13       		.uleb128 0x13
 2453 01b2 00       		.byte	0
 2454 01b3 00       		.byte	0
 2455 01b4 21       		.uleb128 0x21
 2456 01b5 21       		.uleb128 0x21
 2457 01b6 00       		.byte	0
 2458 01b7 49       		.uleb128 0x49
 2459 01b8 13       		.uleb128 0x13
 2460 01b9 2F       		.uleb128 0x2f
 2461 01ba 0B       		.uleb128 0xb
 2462 01bb 00       		.byte	0
 2463 01bc 00       		.byte	0
 2464 01bd 22       		.uleb128 0x22
 2465 01be 34       		.uleb128 0x34
 2466 01bf 00       		.byte	0
 2467 01c0 03       		.uleb128 0x3
 2468 01c1 08       		.uleb128 0x8
 2469 01c2 3A       		.uleb128 0x3a
 2470 01c3 0B       		.uleb128 0xb
 2471 01c4 3B       		.uleb128 0x3b
 2472 01c5 0B       		.uleb128 0xb
 2473 01c6 39       		.uleb128 0x39
 2474 01c7 0B       		.uleb128 0xb
 2475 01c8 49       		.uleb128 0x49
 2476 01c9 13       		.uleb128 0x13
 2477 01ca 02       		.uleb128 0x2
 2478 01cb 18       		.uleb128 0x18
 2479 01cc 00       		.byte	0
 2480 01cd 00       		.byte	0
 2481 01ce 23       		.uleb128 0x23
 2482 01cf 2E       		.uleb128 0x2e
 2483 01d0 01       		.byte	0x1
 2484 01d1 3F       		.uleb128 0x3f
 2485 01d2 19       		.uleb128 0x19
 2486 01d3 03       		.uleb128 0x3
 2487 01d4 0E       		.uleb128 0xe
 2488 01d5 3A       		.uleb128 0x3a
 2489 01d6 0B       		.uleb128 0xb
 2490 01d7 3B       		.uleb128 0x3b
 2491 01d8 0B       		.uleb128 0xb
 2492 01d9 39       		.uleb128 0x39
 2493 01da 0B       		.uleb128 0xb
 2494 01db 27       		.uleb128 0x27
 2495 01dc 19       		.uleb128 0x19
 2496 01dd 49       		.uleb128 0x49
 2497 01de 13       		.uleb128 0x13
 2498 01df 3C       		.uleb128 0x3c
 2499 01e0 19       		.uleb128 0x19
 2500 01e1 01       		.uleb128 0x1
 2501 01e2 13       		.uleb128 0x13
 2502 01e3 00       		.byte	0
 2503 01e4 00       		.byte	0
 2504 01e5 24       		.uleb128 0x24
 2505 01e6 2E       		.uleb128 0x2e
ARM GAS  /tmp/cctFGGIe.s 			page 50


 2506 01e7 01       		.byte	0x1
 2507 01e8 3F       		.uleb128 0x3f
 2508 01e9 19       		.uleb128 0x19
 2509 01ea 03       		.uleb128 0x3
 2510 01eb 0E       		.uleb128 0xe
 2511 01ec 3A       		.uleb128 0x3a
 2512 01ed 0B       		.uleb128 0xb
 2513 01ee 3B       		.uleb128 0x3b
 2514 01ef 0B       		.uleb128 0xb
 2515 01f0 39       		.uleb128 0x39
 2516 01f1 0B       		.uleb128 0xb
 2517 01f2 27       		.uleb128 0x27
 2518 01f3 19       		.uleb128 0x19
 2519 01f4 11       		.uleb128 0x11
 2520 01f5 01       		.uleb128 0x1
 2521 01f6 12       		.uleb128 0x12
 2522 01f7 06       		.uleb128 0x6
 2523 01f8 40       		.uleb128 0x40
 2524 01f9 18       		.uleb128 0x18
 2525 01fa 7A       		.uleb128 0x7a
 2526 01fb 19       		.uleb128 0x19
 2527 01fc 01       		.uleb128 0x1
 2528 01fd 13       		.uleb128 0x13
 2529 01fe 00       		.byte	0
 2530 01ff 00       		.byte	0
 2531 0200 25       		.uleb128 0x25
 2532 0201 0B       		.uleb128 0xb
 2533 0202 01       		.byte	0x1
 2534 0203 11       		.uleb128 0x11
 2535 0204 01       		.uleb128 0x1
 2536 0205 12       		.uleb128 0x12
 2537 0206 06       		.uleb128 0x6
 2538 0207 01       		.uleb128 0x1
 2539 0208 13       		.uleb128 0x13
 2540 0209 00       		.byte	0
 2541 020a 00       		.byte	0
 2542 020b 26       		.uleb128 0x26
 2543 020c 2E       		.uleb128 0x2e
 2544 020d 01       		.byte	0x1
 2545 020e 3F       		.uleb128 0x3f
 2546 020f 19       		.uleb128 0x19
 2547 0210 03       		.uleb128 0x3
 2548 0211 0E       		.uleb128 0xe
 2549 0212 3A       		.uleb128 0x3a
 2550 0213 0B       		.uleb128 0xb
 2551 0214 3B       		.uleb128 0x3b
 2552 0215 0B       		.uleb128 0xb
 2553 0216 39       		.uleb128 0x39
 2554 0217 0B       		.uleb128 0xb
 2555 0218 27       		.uleb128 0x27
 2556 0219 19       		.uleb128 0x19
 2557 021a 49       		.uleb128 0x49
 2558 021b 13       		.uleb128 0x13
 2559 021c 11       		.uleb128 0x11
 2560 021d 01       		.uleb128 0x1
 2561 021e 12       		.uleb128 0x12
 2562 021f 06       		.uleb128 0x6
ARM GAS  /tmp/cctFGGIe.s 			page 51


 2563 0220 40       		.uleb128 0x40
 2564 0221 18       		.uleb128 0x18
 2565 0222 7A       		.uleb128 0x7a
 2566 0223 19       		.uleb128 0x19
 2567 0224 01       		.uleb128 0x1
 2568 0225 13       		.uleb128 0x13
 2569 0226 00       		.byte	0
 2570 0227 00       		.byte	0
 2571 0228 27       		.uleb128 0x27
 2572 0229 2E       		.uleb128 0x2e
 2573 022a 00       		.byte	0
 2574 022b 3F       		.uleb128 0x3f
 2575 022c 19       		.uleb128 0x19
 2576 022d 3C       		.uleb128 0x3c
 2577 022e 19       		.uleb128 0x19
 2578 022f 6E       		.uleb128 0x6e
 2579 0230 0E       		.uleb128 0xe
 2580 0231 03       		.uleb128 0x3
 2581 0232 0E       		.uleb128 0xe
 2582 0233 3A       		.uleb128 0x3a
 2583 0234 0B       		.uleb128 0xb
 2584 0235 3B       		.uleb128 0x3b
 2585 0236 0B       		.uleb128 0xb
 2586 0237 00       		.byte	0
 2587 0238 00       		.byte	0
 2588 0239 00       		.byte	0
 2589              		.section	.debug_loclists,"",%progbits
 2590 0000 5B020000 		.4byte	.Ldebug_loc3-.Ldebug_loc2
 2591              	.Ldebug_loc2:
 2592 0004 0500     		.2byte	0x5
 2593 0006 04       		.byte	0x4
 2594 0007 00       		.byte	0
 2595 0008 00000000 		.4byte	0
 2596              	.Ldebug_loc0:
 2597              	.LVUS1:
 2598 000c 03       		.uleb128 .LVU3
 2599 000d 00       		.uleb128 .LVU9
 2600 000e 00       		.uleb128 .LVU9
 2601 000f 00       		.uleb128 .LVU12
 2602 0010 00       		.uleb128 .LVU12
 2603 0011 01       		.uleb128 .LVU17
 2604              	.LLST1:
 2605 0012 06       		.byte	0x6
 2606 0013 00000000 		.4byte	.LVL0
 2607 0017 04       		.byte	0x4
 2608 0018 00       		.uleb128 .LVL0-.LVL0
 2609 0019 10       		.uleb128 .LVL1-.LVL0
 2610 001a 02       		.uleb128 0x2
 2611 001b 30       		.byte	0x30
 2612 001c 9F       		.byte	0x9f
 2613 001d 04       		.byte	0x4
 2614 001e 10       		.uleb128 .LVL1-.LVL0
 2615 001f 16       		.uleb128 .LVL2-.LVL0
 2616 0020 0B       		.uleb128 0xb
 2617 0021 73       		.byte	0x73
 2618 0022 00       		.sleb128 0
 2619 0023 A8       		.byte	0xa8
ARM GAS  /tmp/cctFGGIe.s 			page 52


 2620 0024 2D       		.uleb128 0x2d
 2621 0025 33       		.byte	0x33
 2622 0026 A8       		.byte	0xa8
 2623 0027 2D       		.uleb128 0x2d
 2624 0028 1B       		.byte	0x1b
 2625 0029 A8       		.byte	0xa8
 2626 002a 00       		.uleb128 0
 2627 002b 9F       		.byte	0x9f
 2628 002c 04       		.byte	0x4
 2629 002d 16       		.uleb128 .LVL2-.LVL0
 2630 002e 1E       		.uleb128 .LVL3-.LVL0
 2631 002f 0B       		.uleb128 0xb
 2632 0030 73       		.byte	0x73
 2633 0031 7D       		.sleb128 -3
 2634 0032 A8       		.byte	0xa8
 2635 0033 2D       		.uleb128 0x2d
 2636 0034 33       		.byte	0x33
 2637 0035 A8       		.byte	0xa8
 2638 0036 2D       		.uleb128 0x2d
 2639 0037 1B       		.byte	0x1b
 2640 0038 A8       		.byte	0xa8
 2641 0039 00       		.uleb128 0
 2642 003a 9F       		.byte	0x9f
 2643 003b 00       		.byte	0
 2644              	.LVUS3:
 2645 003c 02       		.uleb128 .LVU24
 2646 003d 00       		.uleb128 .LVU27
 2647 003e 00       		.uleb128 .LVU27
 2648 003f 00       		.uleb128 .LVU41
 2649 0040 00       		.uleb128 .LVU41
 2650 0041 02       		.uleb128 .LVU50
 2651              	.LLST3:
 2652 0042 06       		.byte	0x6
 2653 0043 40000000 		.4byte	.LVL5
 2654 0047 04       		.byte	0x4
 2655 0048 00       		.uleb128 .LVL5-.LVL5
 2656 0049 0C       		.uleb128 .LVL6-.LVL5
 2657 004a 02       		.uleb128 0x2
 2658 004b 30       		.byte	0x30
 2659 004c 9F       		.byte	0x9f
 2660 004d 04       		.byte	0x4
 2661 004e 0C       		.uleb128 .LVL6-.LVL5
 2662 004f 22       		.uleb128 .LVL9-.LVL5
 2663 0050 01       		.uleb128 0x1
 2664 0051 55       		.byte	0x55
 2665 0052 04       		.byte	0x4
 2666 0053 22       		.uleb128 .LVL9-.LVL5
 2667 0054 38       		.uleb128 .LVL11-.LVL5
 2668 0055 03       		.uleb128 0x3
 2669 0056 75       		.byte	0x75
 2670 0057 7F       		.sleb128 -1
 2671 0058 9F       		.byte	0x9f
 2672 0059 00       		.byte	0
 2673              	.LVUS5:
 2674 005a 00       		.uleb128 .LVU35
 2675 005b 00       		.uleb128 .LVU39
 2676              	.LLST5:
ARM GAS  /tmp/cctFGGIe.s 			page 53


 2677 005c 08       		.byte	0x8
 2678 005d 5E000000 		.4byte	.LVL7
 2679 0061 02       		.uleb128 .LVL8-.LVL7
 2680 0062 0E       		.uleb128 0xe
 2681 0063 73       		.byte	0x73
 2682 0064 00       		.sleb128 0
 2683 0065 40       		.byte	0x40
 2684 0066 24       		.byte	0x24
 2685 0067 40       		.byte	0x40
 2686 0068 26       		.byte	0x26
 2687 0069 77       		.byte	0x77
 2688 006a 00       		.sleb128 0
 2689 006b 40       		.byte	0x40
 2690 006c 24       		.byte	0x24
 2691 006d 40       		.byte	0x40
 2692 006e 26       		.byte	0x26
 2693 006f 1E       		.byte	0x1e
 2694 0070 9F       		.byte	0x9f
 2695 0071 00       		.byte	0
 2696              	.LVUS7:
 2697 0072 00       		.uleb128 .LVU45
 2698 0073 00       		.uleb128 .LVU52
 2699              	.LLST7:
 2700 0074 08       		.byte	0x8
 2701 0075 70000000 		.4byte	.LVL10
 2702 0079 10       		.uleb128 .LVL12-.LVL10
 2703 007a 01       		.uleb128 0x1
 2704 007b 53       		.byte	0x53
 2705 007c 00       		.byte	0
 2706              	.LVUS8:
 2707 007d 02       		.uleb128 .LVU37
 2708 007e 00       		.uleb128 .LVU39
 2709              	.LLST8:
 2710 007f 08       		.byte	0x8
 2711 0080 5E000000 		.4byte	.LVL7
 2712 0084 02       		.uleb128 .LVL8-.LVL7
 2713 0085 10       		.uleb128 0x10
 2714 0086 73       		.byte	0x73
 2715 0087 00       		.sleb128 0
 2716 0088 40       		.byte	0x40
 2717 0089 24       		.byte	0x24
 2718 008a 40       		.byte	0x40
 2719 008b 26       		.byte	0x26
 2720 008c 77       		.byte	0x77
 2721 008d 00       		.sleb128 0
 2722 008e 40       		.byte	0x40
 2723 008f 24       		.byte	0x24
 2724 0090 40       		.byte	0x40
 2725 0091 26       		.byte	0x26
 2726 0092 1E       		.byte	0x1e
 2727 0093 3F       		.byte	0x3f
 2728 0094 26       		.byte	0x26
 2729 0095 9F       		.byte	0x9f
 2730 0096 00       		.byte	0
 2731              	.LVUS9:
 2732 0097 02       		.uleb128 .LVU58
 2733 0098 00       		.uleb128 .LVU60
ARM GAS  /tmp/cctFGGIe.s 			page 54


 2734 0099 00       		.uleb128 .LVU60
 2735 009a 00       		.uleb128 .LVU65
 2736 009b 00       		.uleb128 .LVU65
 2737 009c 01       		.uleb128 .LVU70
 2738              	.LLST9:
 2739 009d 06       		.byte	0x6
 2740 009e AC000000 		.4byte	.LVL16
 2741 00a2 04       		.byte	0x4
 2742 00a3 00       		.uleb128 .LVL16-.LVL16
 2743 00a4 0A       		.uleb128 .LVL17-.LVL16
 2744 00a5 02       		.uleb128 0x2
 2745 00a6 30       		.byte	0x30
 2746 00a7 9F       		.byte	0x9f
 2747 00a8 04       		.byte	0x4
 2748 00a9 0A       		.uleb128 .LVL17-.LVL16
 2749 00aa 16       		.uleb128 .LVL18-.LVL16
 2750 00ab 01       		.uleb128 0x1
 2751 00ac 52       		.byte	0x52
 2752 00ad 04       		.byte	0x4
 2753 00ae 16       		.uleb128 .LVL18-.LVL16
 2754 00af 24       		.uleb128 .LVL19-.LVL16
 2755 00b0 03       		.uleb128 0x3
 2756 00b1 72       		.byte	0x72
 2757 00b2 7F       		.sleb128 -1
 2758 00b3 9F       		.byte	0x9f
 2759 00b4 00       		.byte	0
 2760              	.LVUS11:
 2761 00b5 00       		.uleb128 .LVU120
 2762 00b6 00       		.uleb128 .LVU123
 2763 00b7 00       		.uleb128 .LVU123
 2764 00b8 00       		.uleb128 .LVU124
 2765 00b9 00       		.uleb128 .LVU124
 2766 00ba 00       		.uleb128 .LVU136
 2767              	.LLST11:
 2768 00bb 06       		.byte	0x6
 2769 00bc 98010000 		.4byte	.LVL38
 2770 00c0 04       		.byte	0x4
 2771 00c1 00       		.uleb128 .LVL38-.LVL38
 2772 00c2 02       		.uleb128 .LVL39-.LVL38
 2773 00c3 20       		.uleb128 0x20
 2774 00c4 A5       		.byte	0xa5
 2775 00c5 09       		.uleb128 0x9
 2776 00c6 26       		.uleb128 0x26
 2777 00c7 A5       		.byte	0xa5
 2778 00c8 01       		.uleb128 0x1
 2779 00c9 26       		.uleb128 0x26
 2780 00ca 1C       		.byte	0x1c
 2781 00cb A4       		.byte	0xa4
 2782 00cc 26       		.uleb128 0x26
 2783 00cd 04       		.byte	0x4
 2784 00ce 0000003F 		.4byte	0x3f000000
 2785 00d2 1E       		.byte	0x1e
 2786 00d3 A5       		.byte	0xa5
 2787 00d4 07       		.uleb128 0x7
 2788 00d5 26       		.uleb128 0x26
 2789 00d6 A5       		.byte	0xa5
 2790 00d7 08       		.uleb128 0x8
ARM GAS  /tmp/cctFGGIe.s 			page 55


 2791 00d8 26       		.uleb128 0x26
 2792 00d9 A5       		.byte	0xa5
 2793 00da 08       		.uleb128 0x8
 2794 00db 26       		.uleb128 0x26
 2795 00dc 22       		.byte	0x22
 2796 00dd 1C       		.byte	0x1c
 2797 00de A5       		.byte	0xa5
 2798 00df 00       		.uleb128 0
 2799 00e0 26       		.uleb128 0x26
 2800 00e1 22       		.byte	0x22
 2801 00e2 1B       		.byte	0x1b
 2802 00e3 9F       		.byte	0x9f
 2803 00e4 04       		.byte	0x4
 2804 00e5 02       		.uleb128 .LVL39-.LVL38
 2805 00e6 05       		.uleb128 .LVL40-1-.LVL38
 2806 00e7 20       		.uleb128 0x20
 2807 00e8 A5       		.byte	0xa5
 2808 00e9 09       		.uleb128 0x9
 2809 00ea 26       		.uleb128 0x26
 2810 00eb A5       		.byte	0xa5
 2811 00ec 01       		.uleb128 0x1
 2812 00ed 26       		.uleb128 0x26
 2813 00ee 1C       		.byte	0x1c
 2814 00ef A4       		.byte	0xa4
 2815 00f0 26       		.uleb128 0x26
 2816 00f1 04       		.byte	0x4
 2817 00f2 0000003F 		.4byte	0x3f000000
 2818 00f6 1E       		.byte	0x1e
 2819 00f7 A5       		.byte	0xa5
 2820 00f8 07       		.uleb128 0x7
 2821 00f9 26       		.uleb128 0x26
 2822 00fa A5       		.byte	0xa5
 2823 00fb 08       		.uleb128 0x8
 2824 00fc 26       		.uleb128 0x26
 2825 00fd A5       		.byte	0xa5
 2826 00fe 08       		.uleb128 0x8
 2827 00ff 26       		.uleb128 0x26
 2828 0100 22       		.byte	0x22
 2829 0101 1C       		.byte	0x1c
 2830 0102 A5       		.byte	0xa5
 2831 0103 0A       		.uleb128 0xa
 2832 0104 26       		.uleb128 0x26
 2833 0105 22       		.byte	0x22
 2834 0106 1B       		.byte	0x1b
 2835 0107 9F       		.byte	0x9f
 2836 0108 04       		.byte	0x4
 2837 0109 05       		.uleb128 .LVL40-1-.LVL38
 2838 010a 4E       		.uleb128 .LVL51-.LVL38
 2839 010b 20       		.uleb128 0x20
 2840 010c A5       		.byte	0xa5
 2841 010d 09       		.uleb128 0x9
 2842 010e 26       		.uleb128 0x26
 2843 010f A5       		.byte	0xa5
 2844 0110 0B       		.uleb128 0xb
 2845 0111 26       		.uleb128 0x26
 2846 0112 1C       		.byte	0x1c
 2847 0113 A4       		.byte	0xa4
ARM GAS  /tmp/cctFGGIe.s 			page 56


 2848 0114 26       		.uleb128 0x26
 2849 0115 04       		.byte	0x4
 2850 0116 0000003F 		.4byte	0x3f000000
 2851 011a 1E       		.byte	0x1e
 2852 011b A5       		.byte	0xa5
 2853 011c 07       		.uleb128 0x7
 2854 011d 26       		.uleb128 0x26
 2855 011e A5       		.byte	0xa5
 2856 011f 08       		.uleb128 0x8
 2857 0120 26       		.uleb128 0x26
 2858 0121 A5       		.byte	0xa5
 2859 0122 08       		.uleb128 0x8
 2860 0123 26       		.uleb128 0x26
 2861 0124 22       		.byte	0x22
 2862 0125 1C       		.byte	0x1c
 2863 0126 A5       		.byte	0xa5
 2864 0127 0A       		.uleb128 0xa
 2865 0128 26       		.uleb128 0x26
 2866 0129 22       		.byte	0x22
 2867 012a 1B       		.byte	0x1b
 2868 012b 9F       		.byte	0x9f
 2869 012c 00       		.byte	0
 2870              	.LVUS12:
 2871 012d 01       		.uleb128 .LVU121
 2872 012e 00       		.uleb128 .LVU123
 2873 012f 00       		.uleb128 .LVU123
 2874 0130 00       		.uleb128 .LVU124
 2875 0131 00       		.uleb128 .LVU124
 2876 0132 00       		.uleb128 .LVU136
 2877              	.LLST12:
 2878 0133 06       		.byte	0x6
 2879 0134 98010000 		.4byte	.LVL38
 2880 0138 04       		.byte	0x4
 2881 0139 00       		.uleb128 .LVL38-.LVL38
 2882 013a 02       		.uleb128 .LVL39-.LVL38
 2883 013b 2F       		.uleb128 0x2f
 2884 013c A5       		.byte	0xa5
 2885 013d 09       		.uleb128 0x9
 2886 013e 26       		.uleb128 0x26
 2887 013f A5       		.byte	0xa5
 2888 0140 01       		.uleb128 0x1
 2889 0141 26       		.uleb128 0x26
 2890 0142 1C       		.byte	0x1c
 2891 0143 A4       		.byte	0xa4
 2892 0144 26       		.uleb128 0x26
 2893 0145 04       		.byte	0x4
 2894 0146 0000003F 		.4byte	0x3f000000
 2895 014a 1E       		.byte	0x1e
 2896 014b A5       		.byte	0xa5
 2897 014c 07       		.uleb128 0x7
 2898 014d 26       		.uleb128 0x26
 2899 014e A5       		.byte	0xa5
 2900 014f 08       		.uleb128 0x8
 2901 0150 26       		.uleb128 0x26
 2902 0151 A5       		.byte	0xa5
 2903 0152 08       		.uleb128 0x8
 2904 0153 26       		.uleb128 0x26
ARM GAS  /tmp/cctFGGIe.s 			page 57


 2905 0154 22       		.byte	0x22
 2906 0155 1C       		.byte	0x1c
 2907 0156 A5       		.byte	0xa5
 2908 0157 00       		.uleb128 0
 2909 0158 26       		.uleb128 0x26
 2910 0159 22       		.byte	0x22
 2911 015a 1B       		.byte	0x1b
 2912 015b 75       		.byte	0x75
 2913 015c 00       		.sleb128 0
 2914 015d A8       		.byte	0xa8
 2915 015e 2D       		.uleb128 0x2d
 2916 015f A8       		.byte	0xa8
 2917 0160 26       		.uleb128 0x26
 2918 0161 22       		.byte	0x22
 2919 0162 A4       		.byte	0xa4
 2920 0163 26       		.uleb128 0x26
 2921 0164 04       		.byte	0x4
 2922 0165 1B2FDD3D 		.4byte	0x3ddd2f1b
 2923 0169 1E       		.byte	0x1e
 2924 016a 9F       		.byte	0x9f
 2925 016b 04       		.byte	0x4
 2926 016c 02       		.uleb128 .LVL39-.LVL38
 2927 016d 05       		.uleb128 .LVL40-1-.LVL38
 2928 016e 2F       		.uleb128 0x2f
 2929 016f A5       		.byte	0xa5
 2930 0170 09       		.uleb128 0x9
 2931 0171 26       		.uleb128 0x26
 2932 0172 A5       		.byte	0xa5
 2933 0173 01       		.uleb128 0x1
 2934 0174 26       		.uleb128 0x26
 2935 0175 1C       		.byte	0x1c
 2936 0176 A4       		.byte	0xa4
 2937 0177 26       		.uleb128 0x26
 2938 0178 04       		.byte	0x4
 2939 0179 0000003F 		.4byte	0x3f000000
 2940 017d 1E       		.byte	0x1e
 2941 017e A5       		.byte	0xa5
 2942 017f 07       		.uleb128 0x7
 2943 0180 26       		.uleb128 0x26
 2944 0181 A5       		.byte	0xa5
 2945 0182 08       		.uleb128 0x8
 2946 0183 26       		.uleb128 0x26
 2947 0184 A5       		.byte	0xa5
 2948 0185 08       		.uleb128 0x8
 2949 0186 26       		.uleb128 0x26
 2950 0187 22       		.byte	0x22
 2951 0188 1C       		.byte	0x1c
 2952 0189 A5       		.byte	0xa5
 2953 018a 0A       		.uleb128 0xa
 2954 018b 26       		.uleb128 0x26
 2955 018c 22       		.byte	0x22
 2956 018d 1B       		.byte	0x1b
 2957 018e 75       		.byte	0x75
 2958 018f 00       		.sleb128 0
 2959 0190 A8       		.byte	0xa8
 2960 0191 2D       		.uleb128 0x2d
 2961 0192 A8       		.byte	0xa8
ARM GAS  /tmp/cctFGGIe.s 			page 58


 2962 0193 26       		.uleb128 0x26
 2963 0194 22       		.byte	0x22
 2964 0195 A4       		.byte	0xa4
 2965 0196 26       		.uleb128 0x26
 2966 0197 04       		.byte	0x4
 2967 0198 1B2FDD3D 		.4byte	0x3ddd2f1b
 2968 019c 1E       		.byte	0x1e
 2969 019d 9F       		.byte	0x9f
 2970 019e 04       		.byte	0x4
 2971 019f 05       		.uleb128 .LVL40-1-.LVL38
 2972 01a0 4E       		.uleb128 .LVL51-.LVL38
 2973 01a1 2F       		.uleb128 0x2f
 2974 01a2 A5       		.byte	0xa5
 2975 01a3 09       		.uleb128 0x9
 2976 01a4 26       		.uleb128 0x26
 2977 01a5 A5       		.byte	0xa5
 2978 01a6 0B       		.uleb128 0xb
 2979 01a7 26       		.uleb128 0x26
 2980 01a8 1C       		.byte	0x1c
 2981 01a9 A4       		.byte	0xa4
 2982 01aa 26       		.uleb128 0x26
 2983 01ab 04       		.byte	0x4
 2984 01ac 0000003F 		.4byte	0x3f000000
 2985 01b0 1E       		.byte	0x1e
 2986 01b1 A5       		.byte	0xa5
 2987 01b2 07       		.uleb128 0x7
 2988 01b3 26       		.uleb128 0x26
 2989 01b4 A5       		.byte	0xa5
 2990 01b5 08       		.uleb128 0x8
 2991 01b6 26       		.uleb128 0x26
 2992 01b7 A5       		.byte	0xa5
 2993 01b8 08       		.uleb128 0x8
 2994 01b9 26       		.uleb128 0x26
 2995 01ba 22       		.byte	0x22
 2996 01bb 1C       		.byte	0x1c
 2997 01bc A5       		.byte	0xa5
 2998 01bd 0A       		.uleb128 0xa
 2999 01be 26       		.uleb128 0x26
 3000 01bf 22       		.byte	0x22
 3001 01c0 1B       		.byte	0x1b
 3002 01c1 75       		.byte	0x75
 3003 01c2 00       		.sleb128 0
 3004 01c3 A8       		.byte	0xa8
 3005 01c4 2D       		.uleb128 0x2d
 3006 01c5 A8       		.byte	0xa8
 3007 01c6 26       		.uleb128 0x26
 3008 01c7 22       		.byte	0x22
 3009 01c8 A4       		.byte	0xa4
 3010 01c9 26       		.uleb128 0x26
 3011 01ca 04       		.byte	0x4
 3012 01cb 1B2FDD3D 		.4byte	0x3ddd2f1b
 3013 01cf 1E       		.byte	0x1e
 3014 01d0 9F       		.byte	0x9f
 3015 01d1 00       		.byte	0
 3016              	.LVUS13:
 3017 01d2 00       		.uleb128 .LVU96
 3018 01d3 00       		.uleb128 .LVU99
ARM GAS  /tmp/cctFGGIe.s 			page 59


 3019 01d4 00       		.uleb128 .LVU100
 3020 01d5 00       		.uleb128 .LVU116
 3021 01d6 00       		.uleb128 .LVU138
 3022 01d7 00       		.uleb128 .LVU139
 3023 01d8 00       		.uleb128 .LVU139
 3024 01d9 00       		.uleb128 0
 3025              	.LLST13:
 3026 01da 06       		.byte	0x6
 3027 01db 40010000 		.4byte	.LVL22
 3028 01df 04       		.byte	0x4
 3029 01e0 00       		.uleb128 .LVL22-.LVL22
 3030 01e1 07       		.uleb128 .LVL23-1-.LVL22
 3031 01e2 07       		.uleb128 0x7
 3032 01e3 70       		.byte	0x70
 3033 01e4 00       		.sleb128 0
 3034 01e5 A8       		.byte	0xa8
 3035 01e6 34       		.uleb128 0x34
 3036 01e7 A8       		.byte	0xa8
 3037 01e8 26       		.uleb128 0x26
 3038 01e9 9F       		.byte	0x9f
 3039 01ea 04       		.byte	0x4
 3040 01eb 0A       		.uleb128 .LVL24-.LVL22
 3041 01ec 46       		.uleb128 .LVL34-.LVL22
 3042 01ed 01       		.uleb128 0x1
 3043 01ee 57       		.byte	0x57
 3044 01ef 04       		.byte	0x4
 3045 01f0 AA01     		.uleb128 .LVL52-.LVL22
 3046 01f2 AE01     		.uleb128 .LVL53-.LVL22
 3047 01f4 07       		.uleb128 0x7
 3048 01f5 70       		.byte	0x70
 3049 01f6 00       		.sleb128 0
 3050 01f7 A8       		.byte	0xa8
 3051 01f8 34       		.uleb128 0x34
 3052 01f9 A8       		.byte	0xa8
 3053 01fa 26       		.uleb128 0x26
 3054 01fb 9F       		.byte	0x9f
 3055 01fc 04       		.byte	0x4
 3056 01fd AE01     		.uleb128 .LVL53-.LVL22
 3057 01ff E801     		.uleb128 .LFE122-.LVL22
 3058 0201 01       		.uleb128 0x1
 3059 0202 57       		.byte	0x57
 3060 0203 00       		.byte	0
 3061              	.LVUS14:
 3062 0204 00       		.uleb128 .LVU102
 3063 0205 00       		.uleb128 .LVU105
 3064 0206 00       		.uleb128 .LVU106
 3065 0207 00       		.uleb128 .LVU117
 3066 0208 00       		.uleb128 .LVU139
 3067 0209 00       		.uleb128 .LVU140
 3068 020a 00       		.uleb128 .LVU140
 3069 020b 00       		.uleb128 0
 3070              	.LLST14:
 3071 020c 06       		.byte	0x6
 3072 020d 52010000 		.4byte	.LVL25
 3073 0211 04       		.byte	0x4
 3074 0212 00       		.uleb128 .LVL25-.LVL25
 3075 0213 07       		.uleb128 .LVL26-1-.LVL25
ARM GAS  /tmp/cctFGGIe.s 			page 60


 3076 0214 07       		.uleb128 0x7
 3077 0215 70       		.byte	0x70
 3078 0216 00       		.sleb128 0
 3079 0217 A8       		.byte	0xa8
 3080 0218 34       		.uleb128 0x34
 3081 0219 A8       		.byte	0xa8
 3082 021a 26       		.uleb128 0x26
 3083 021b 9F       		.byte	0x9f
 3084 021c 04       		.byte	0x4
 3085 021d 0A       		.uleb128 .LVL27-.LVL25
 3086 021e 3C       		.uleb128 .LVL36-.LVL25
 3087 021f 01       		.uleb128 0x1
 3088 0220 58       		.byte	0x58
 3089 0221 04       		.byte	0x4
 3090 0222 9C01     		.uleb128 .LVL53-.LVL25
 3091 0224 A201     		.uleb128 .LVL54-.LVL25
 3092 0226 07       		.uleb128 0x7
 3093 0227 70       		.byte	0x70
 3094 0228 00       		.sleb128 0
 3095 0229 A8       		.byte	0xa8
 3096 022a 34       		.uleb128 0x34
 3097 022b A8       		.byte	0xa8
 3098 022c 26       		.uleb128 0x26
 3099 022d 9F       		.byte	0x9f
 3100 022e 04       		.byte	0x4
 3101 022f A201     		.uleb128 .LVL54-.LVL25
 3102 0231 D601     		.uleb128 .LFE122-.LVL25
 3103 0233 01       		.uleb128 0x1
 3104 0234 58       		.byte	0x58
 3105 0235 00       		.byte	0
 3106              	.LVUS15:
 3107 0236 00       		.uleb128 .LVU108
 3108 0237 00       		.uleb128 .LVU111
 3109 0238 00       		.uleb128 .LVU112
 3110 0239 00       		.uleb128 .LVU127
 3111 023a 00       		.uleb128 .LVU140
 3112 023b 00       		.uleb128 0
 3113              	.LLST15:
 3114 023c 06       		.byte	0x6
 3115 023d 64010000 		.4byte	.LVL28
 3116 0241 04       		.byte	0x4
 3117 0242 00       		.uleb128 .LVL28-.LVL28
 3118 0243 07       		.uleb128 .LVL29-1-.LVL28
 3119 0244 07       		.uleb128 0x7
 3120 0245 70       		.byte	0x70
 3121 0246 00       		.sleb128 0
 3122 0247 A8       		.byte	0xa8
 3123 0248 34       		.uleb128 0x34
 3124 0249 A8       		.byte	0xa8
 3125 024a 26       		.uleb128 0x26
 3126 024b 9F       		.byte	0x9f
 3127 024c 04       		.byte	0x4
 3128 024d 0A       		.uleb128 .LVL30-.LVL28
 3129 024e 46       		.uleb128 .LVL42-.LVL28
 3130 024f 01       		.uleb128 0x1
 3131 0250 56       		.byte	0x56
 3132 0251 04       		.byte	0x4
ARM GAS  /tmp/cctFGGIe.s 			page 61


 3133 0252 9001     		.uleb128 .LVL54-.LVL28
 3134 0254 C401     		.uleb128 .LFE122-.LVL28
 3135 0256 07       		.uleb128 0x7
 3136 0257 70       		.byte	0x70
 3137 0258 00       		.sleb128 0
 3138 0259 A8       		.byte	0xa8
 3139 025a 34       		.uleb128 0x34
 3140 025b A8       		.byte	0xa8
 3141 025c 26       		.uleb128 0x26
 3142 025d 9F       		.byte	0x9f
 3143 025e 00       		.byte	0
 3144              	.Ldebug_loc3:
 3145              		.section	.debug_aranges,"",%progbits
 3146 0000 24000000 		.4byte	0x24
 3147 0004 0200     		.2byte	0x2
 3148 0006 00000000 		.4byte	.Ldebug_info0
 3149 000a 04       		.byte	0x4
 3150 000b 00       		.byte	0
 3151 000c 0000     		.2byte	0
 3152 000e 0000     		.2byte	0
 3153 0010 00000000 		.4byte	.Ltext0
 3154 0014 28020000 		.4byte	.Letext0-.Ltext0
 3155 0018 00000000 		.4byte	.LFB121
 3156 001c 68000000 		.4byte	.LFE121-.LFB121
 3157 0020 00000000 		.4byte	0
 3158 0024 00000000 		.4byte	0
 3159              		.section	.debug_rnglists,"",%progbits
 3160              	.Ldebug_ranges0:
 3161 0000 61000000 		.4byte	.Ldebug_ranges3-.Ldebug_ranges2
 3162              	.Ldebug_ranges2:
 3163 0004 0500     		.2byte	0x5
 3164 0006 04       		.byte	0x4
 3165 0007 00       		.byte	0
 3166 0008 00000000 		.4byte	0
 3167              	.LLRL0:
 3168 000c 05       		.byte	0x5
 3169 000d 00000000 		.4byte	.LBB2
 3170 0011 04       		.byte	0x4
 3171 0012 00       		.uleb128 .LBB2-.LBB2
 3172 0013 00       		.uleb128 .LBE2-.LBB2
 3173 0014 04       		.byte	0x4
 3174 0015 08       		.uleb128 .LBB3-.LBB2
 3175 0016 0A       		.uleb128 .LBE3-.LBB2
 3176 0017 04       		.byte	0x4
 3177 0018 0E       		.uleb128 .LBB4-.LBB2
 3178 0019 24       		.uleb128 .LBE4-.LBB2
 3179 001a 00       		.byte	0
 3180              	.LLRL2:
 3181 001b 05       		.byte	0x5
 3182 001c 24000000 		.4byte	.LBB5
 3183 0020 04       		.byte	0x4
 3184 0021 00       		.uleb128 .LBB5-.LBB5
 3185 0022 02       		.uleb128 .LBE5-.LBB5
 3186 0023 04       		.byte	0x4
 3187 0024 1C       		.uleb128 .LBB13-.LBB5
 3188 0025 56       		.uleb128 .LBE13-.LBB5
 3189 0026 00       		.byte	0
ARM GAS  /tmp/cctFGGIe.s 			page 62


 3190              	.LLRL4:
 3191 0027 05       		.byte	0x5
 3192 0028 24000000 		.4byte	.LBB6
 3193 002c 04       		.byte	0x4
 3194 002d 00       		.uleb128 .LBB6-.LBB6
 3195 002e 02       		.uleb128 .LBE6-.LBB6
 3196 002f 04       		.byte	0x4
 3197 0030 1C       		.uleb128 .LBB10-.LBB6
 3198 0031 3C       		.uleb128 .LBE10-.LBB6
 3199 0032 04       		.byte	0x4
 3200 0033 42       		.uleb128 .LBB11-.LBB6
 3201 0034 4C       		.uleb128 .LBE11-.LBB6
 3202 0035 04       		.byte	0x4
 3203 0036 50       		.uleb128 .LBB12-.LBB6
 3204 0037 54       		.uleb128 .LBE12-.LBB6
 3205 0038 00       		.byte	0
 3206              	.LLRL6:
 3207 0039 05       		.byte	0x5
 3208 003a 5E000000 		.4byte	.LBB7
 3209 003e 04       		.byte	0x4
 3210 003f 00       		.uleb128 .LBB7-.LBB7
 3211 0040 00       		.uleb128 .LBE7-.LBB7
 3212 0041 04       		.byte	0x4
 3213 0042 08       		.uleb128 .LBB8-.LBB7
 3214 0043 0C       		.uleb128 .LBE8-.LBB7
 3215 0044 04       		.byte	0x4
 3216 0045 0E       		.uleb128 .LBB9-.LBB7
 3217 0046 12       		.uleb128 .LBE9-.LBB7
 3218 0047 00       		.byte	0
 3219              	.LLRL10:
 3220 0048 05       		.byte	0x5
 3221 0049 38010000 		.4byte	.LBB15
 3222 004d 04       		.byte	0x4
 3223 004e 00       		.uleb128 .LBB15-.LBB15
 3224 004f AE01     		.uleb128 .LBE15-.LBB15
 3225 0051 04       		.byte	0x4
 3226 0052 B201     		.uleb128 .LBB16-.LBB15
 3227 0054 F001     		.uleb128 .LBE16-.LBB15
 3228 0056 00       		.byte	0
 3229              	.LLRL16:
 3230 0057 07       		.byte	0x7
 3231 0058 00000000 		.4byte	.Ltext0
 3232 005c A804     		.uleb128 .Letext0-.Ltext0
 3233 005e 07       		.byte	0x7
 3234 005f 00000000 		.4byte	.LFB121
 3235 0063 68       		.uleb128 .LFE121-.LFB121
 3236 0064 00       		.byte	0
 3237              	.Ldebug_ranges3:
 3238              		.section	.debug_line,"",%progbits
 3239              	.Ldebug_line0:
 3240 0000 6B040000 		.section	.debug_str,"MS",%progbits,1
 3240      03009701 
 3240      00000201 
 3240      FB0E0D00 
 3240      01010101 
 3241              	.LASF37:
 3242 0000 69666674 		.ascii	"ifftFlag\000"
ARM GAS  /tmp/cctFGGIe.s 			page 63


 3242      466C6167 
 3242      00
 3243              	.LASF86:
 3244 0009 5F5F6165 		.ascii	"__aeabi_fmul\000"
 3244      6162695F 
 3244      666D756C 
 3244      00
 3245              	.LASF53:
 3246 0016 6D617856 		.ascii	"maxVal\000"
 3246      616C00
 3247              	.LASF34:
 3248 001d 7131355F 		.ascii	"q15_t\000"
 3248      7400
 3249              	.LASF16:
 3250 0023 696E7438 		.ascii	"int8_t\000"
 3250      5F7400
 3251              	.LASF31:
 3252 002a 41524D5F 		.ascii	"ARM_MATH_SINGULAR\000"
 3252      4D415448 
 3252      5F53494E 
 3252      47554C41 
 3252      5200
 3253              	.LASF33:
 3254 003c 61726D5F 		.ascii	"arm_status\000"
 3254      73746174 
 3254      757300
 3255              	.LASF2:
 3256 0047 73686F72 		.ascii	"short int\000"
 3256      7420696E 
 3256      7400
 3257              	.LASF22:
 3258 0051 73697A65 		.ascii	"size_t\000"
 3258      5F7400
 3259              	.LASF52:
 3260 0058 696E7075 		.ascii	"input\000"
 3260      7400
 3261              	.LASF42:
 3262 005e 62697452 		.ascii	"bitRevFactor\000"
 3262      65764661 
 3262      63746F72 
 3262      00
 3263              	.LASF81:
 3264 006b 6D61675F 		.ascii	"mag_km1\000"
 3264      6B6D3100 
 3265              	.LASF79:
 3266 0073 64656C74 		.ascii	"delta\000"
 3266      6100
 3267              	.LASF26:
 3268 0079 41524D5F 		.ascii	"ARM_MATH_SUCCESS\000"
 3268      4D415448 
 3268      5F535543 
 3268      43455353 
 3268      00
 3269              	.LASF95:
 3270 008a 6D61696E 		.ascii	"main\000"
 3270      00
 3271              	.LASF12:
ARM GAS  /tmp/cctFGGIe.s 			page 64


 3272 008f 5F5F7569 		.ascii	"__uint32_t\000"
 3272      6E743332 
 3272      5F7400
 3273              	.LASF54:
 3274 009a 6D617849 		.ascii	"maxIndex\000"
 3274      6E646578 
 3274      00
 3275              	.LASF70:
 3276 00a3 73746172 		.ascii	"start_process\000"
 3276      745F7072 
 3276      6F636573 
 3276      7300
 3277              	.LASF8:
 3278 00b1 5F5F7569 		.ascii	"__uint16_t\000"
 3278      6E743136 
 3278      5F7400
 3279              	.LASF55:
 3280 00bc 6E6F6973 		.ascii	"noisefloor\000"
 3280      65666C6F 
 3280      6F7200
 3281              	.LASF30:
 3282 00c7 41524D5F 		.ascii	"ARM_MATH_NANINF\000"
 3282      4D415448 
 3282      5F4E414E 
 3282      494E4600 
 3283              	.LASF71:
 3284 00d7 6C65645F 		.ascii	"led_init\000"
 3284      696E6974 
 3284      00
 3285              	.LASF62:
 3286 00e0 61726D5F 		.ascii	"arm_cfft_radix2_q15\000"
 3286      63666674 
 3286      5F726164 
 3286      6978325F 
 3286      71313500 
 3287              	.LASF96:
 3288 00f4 5F5F6275 		.ascii	"__builtin_memset\000"
 3288      696C7469 
 3288      6E5F6D65 
 3288      6D736574 
 3288      00
 3289              	.LASF40:
 3290 0105 70426974 		.ascii	"pBitRevTable\000"
 3290      52657654 
 3290      61626C65 
 3290      00
 3291              	.LASF17:
 3292 0112 75696E74 		.ascii	"uint8_t\000"
 3292      385F7400 
 3293              	.LASF44:
 3294 011a 6164635F 		.ascii	"adc_buffer\000"
 3294      62756666 
 3294      657200
 3295              	.LASF82:
 3296 0125 6D61675F 		.ascii	"mag_k\000"
 3296      6B00
 3297              	.LASF67:
ARM GAS  /tmp/cctFGGIe.s 			page 65


 3298 012b 7370695F 		.ascii	"spi_transmit\000"
 3298      7472616E 
 3298      736D6974 
 3298      00
 3299              	.LASF93:
 3300 0138 2F686F6D 		.ascii	"/home/umesh_adwait/sensor_ppg\000"
 3300      652F756D 
 3300      6573685F 
 3300      61647761 
 3300      69742F73 
 3301              	.LASF85:
 3302 0156 5F5F6165 		.ascii	"__aeabi_fsub\000"
 3302      6162695F 
 3302      66737562 
 3302      00
 3303              	.LASF0:
 3304 0163 666C6F61 		.ascii	"float\000"
 3304      7400
 3305              	.LASF59:
 3306 0169 6666745F 		.ascii	"fft_inst\000"
 3306      696E7374 
 3306      00
 3307              	.LASF39:
 3308 0172 70547769 		.ascii	"pTwiddle\000"
 3308      64646C65 
 3308      00
 3309              	.LASF76:
 3310 017b 74656D70 		.ascii	"temp\000"
 3310      00
 3311              	.LASF14:
 3312 0180 6C6F6E67 		.ascii	"long long int\000"
 3312      206C6F6E 
 3312      6720696E 
 3312      7400
 3313              	.LASF77:
 3314 018e 5F5F5245 		.ascii	"__RES\000"
 3314      5300
 3315              	.LASF66:
 3316 0194 6D656D73 		.ascii	"memset\000"
 3316      657400
 3317              	.LASF11:
 3318 019b 6C6F6E67 		.ascii	"long int\000"
 3318      20696E74 
 3318      00
 3319              	.LASF51:
 3320 01a4 7053504F 		.ascii	"pSPO2_RED\000"
 3320      325F5245 
 3320      4400
 3321              	.LASF35:
 3322 01ae 666C6F61 		.ascii	"float32_t\000"
 3322      7433325F 
 3322      7400
 3323              	.LASF5:
 3324 01b8 5F5F7569 		.ascii	"__uint8_t\000"
 3324      6E74385F 
 3324      7400
 3325              	.LASF23:
ARM GAS  /tmp/cctFGGIe.s 			page 66


 3326 01c2 6C6F6E67 		.ascii	"long double\000"
 3326      20646F75 
 3326      626C6500 
 3327              	.LASF94:
 3328 01ce 4453505F 		.ascii	"DSP_process\000"
 3328      70726F63 
 3328      65737300 
 3329              	.LASF84:
 3330 01da 5F5F6165 		.ascii	"__aeabi_i2f\000"
 3330      6162695F 
 3330      69326600 
 3331              	.LASF89:
 3332 01e6 5F5F6165 		.ascii	"__aeabi_ui2f\000"
 3332      6162695F 
 3332      75693266 
 3332      00
 3333              	.LASF90:
 3334 01f3 5F5F6165 		.ascii	"__aeabi_f2uiz\000"
 3334      6162695F 
 3334      66327569 
 3334      7A00
 3335              	.LASF6:
 3336 0201 756E7369 		.ascii	"unsigned char\000"
 3336      676E6564 
 3336      20636861 
 3336      7200
 3337              	.LASF78:
 3338 020f 5F5F4152 		.ascii	"__ARG1\000"
 3338      473100
 3339              	.LASF75:
 3340 0216 585F436C 		.ascii	"X_Clock_Init\000"
 3340      6F636B5F 
 3340      496E6974 
 3340      00
 3341              	.LASF60:
 3342 0223 61726D5F 		.ascii	"arm_max_q15\000"
 3342      6D61785F 
 3342      71313500 
 3343              	.LASF3:
 3344 022f 7369676E 		.ascii	"signed char\000"
 3344      65642063 
 3344      68617200 
 3345              	.LASF15:
 3346 023b 6C6F6E67 		.ascii	"long long unsigned int\000"
 3346      206C6F6E 
 3346      6720756E 
 3346      7369676E 
 3346      65642069 
 3347              	.LASF74:
 3348 0252 7370695F 		.ascii	"spi_init\000"
 3348      696E6974 
 3348      00
 3349              	.LASF21:
 3350 025b 75696E74 		.ascii	"uint32_t\000"
 3350      33325F74 
 3350      00
 3351              	.LASF36:
ARM GAS  /tmp/cctFGGIe.s 			page 67


 3352 0264 6666744C 		.ascii	"fftLen\000"
 3352      656E00
 3353              	.LASF19:
 3354 026b 75696E74 		.ascii	"uint16_t\000"
 3354      31365F74 
 3354      00
 3355              	.LASF68:
 3356 0274 5F75735F 		.ascii	"_us_delay\000"
 3356      64656C61 
 3356      7900
 3357              	.LASF57:
 3358 027e 68725F76 		.ascii	"hr_values\000"
 3358      616C7565 
 3358      7300
 3359              	.LASF4:
 3360 0288 5F5F696E 		.ascii	"__int8_t\000"
 3360      74385F74 
 3360      00
 3361              	.LASF41:
 3362 0291 74776964 		.ascii	"twidCoefModifier\000"
 3362      436F6566 
 3362      4D6F6469 
 3362      66696572 
 3362      00
 3363              	.LASF24:
 3364 02a2 63686172 		.ascii	"char\000"
 3364      00
 3365              	.LASF50:
 3366 02a7 7053504F 		.ascii	"pSPO2_IR\000"
 3366      325F4952 
 3366      00
 3367              	.LASF20:
 3368 02b0 696E7433 		.ascii	"int32_t\000"
 3368      325F7400 
 3369              	.LASF73:
 3370 02b8 54494D32 		.ascii	"TIM2_Init\000"
 3370      5F496E69 
 3370      7400
 3371              	.LASF9:
 3372 02c2 73686F72 		.ascii	"short unsigned int\000"
 3372      7420756E 
 3372      7369676E 
 3372      65642069 
 3372      6E7400
 3373              	.LASF18:
 3374 02d5 696E7431 		.ascii	"int16_t\000"
 3374      365F7400 
 3375              	.LASF46:
 3376 02dd 5F426F6F 		.ascii	"_Bool\000"
 3376      6C00
 3377              	.LASF63:
 3378 02e3 61726D5F 		.ascii	"arm_shift_q15\000"
 3378      73686966 
 3378      745F7131 
 3378      3500
 3379              	.LASF1:
 3380 02f1 756E7369 		.ascii	"unsigned int\000"
ARM GAS  /tmp/cctFGGIe.s 			page 68


 3380      676E6564 
 3380      20696E74 
 3380      00
 3381              	.LASF65:
 3382 02fe 6C6F6766 		.ascii	"logf\000"
 3382      00
 3383              	.LASF61:
 3384 0303 61726D5F 		.ascii	"arm_cmplx_mag_q15\000"
 3384      636D706C 
 3384      785F6D61 
 3384      675F7131 
 3384      3500
 3385              	.LASF69:
 3386 0315 61726D5F 		.ascii	"arm_cfft_radix2_init_q15\000"
 3386      63666674 
 3386      5F726164 
 3386      6978325F 
 3386      696E6974 
 3387              	.LASF49:
 3388 032e 70505047 		.ascii	"pPPG_Sample\000"
 3388      5F53616D 
 3388      706C6500 
 3389              	.LASF72:
 3390 033a 6164635F 		.ascii	"adc_init_cont\000"
 3390      696E6974 
 3390      5F636F6E 
 3390      7400
 3391              	.LASF13:
 3392 0348 6C6F6E67 		.ascii	"long unsigned int\000"
 3392      20756E73 
 3392      69676E65 
 3392      6420696E 
 3392      7400
 3393              	.LASF29:
 3394 035a 41524D5F 		.ascii	"ARM_MATH_SIZE_MISMATCH\000"
 3394      4D415448 
 3394      5F53495A 
 3394      455F4D49 
 3394      534D4154 
 3395              	.LASF25:
 3396 0371 646F7562 		.ascii	"double\000"
 3396      6C6500
 3397              	.LASF64:
 3398 0378 61726D5F 		.ascii	"arm_mean_q15\000"
 3398      6D65616E 
 3398      5F713135 
 3398      00
 3399              	.LASF45:
 3400 0385 4143435F 		.ascii	"ACC_COMP\000"
 3400      434F4D50 
 3400      00
 3401              	.LASF80:
 3402 038e 72656669 		.ascii	"refined_freq\000"
 3402      6E65645F 
 3402      66726571 
 3402      00
 3403              	.LASF10:
ARM GAS  /tmp/cctFGGIe.s 			page 69


 3404 039b 5F5F696E 		.ascii	"__int32_t\000"
 3404      7433325F 
 3404      7400
 3405              	.LASF38:
 3406 03a5 62697452 		.ascii	"bitReverseFlag\000"
 3406      65766572 
 3406      7365466C 
 3406      616700
 3407              	.LASF27:
 3408 03b4 41524D5F 		.ascii	"ARM_MATH_ARGUMENT_ERROR\000"
 3408      4D415448 
 3408      5F415247 
 3408      554D454E 
 3408      545F4552 
 3409              	.LASF7:
 3410 03cc 5F5F696E 		.ascii	"__int16_t\000"
 3410      7431365F 
 3410      7400
 3411              	.LASF32:
 3412 03d6 41524D5F 		.ascii	"ARM_MATH_TEST_FAILURE\000"
 3412      4D415448 
 3412      5F544553 
 3412      545F4641 
 3412      494C5552 
 3413              	.LASF87:
 3414 03ec 5F5F6165 		.ascii	"__aeabi_fadd\000"
 3414      6162695F 
 3414      66616464 
 3414      00
 3415              	.LASF47:
 3416 03f9 68616D6D 		.ascii	"hamming\000"
 3416      696E6700 
 3417              	.LASF91:
 3418 0401 474E5520 		.ascii	"GNU C11 13.3.1 20240614 -mthumb -mcpu=cortex-m3 -mf"
 3418      43313120 
 3418      31332E33 
 3418      2E312032 
 3418      30323430 
 3419 0434 6C6F6174 		.ascii	"loat-abi=soft -march=armv7-m -g -Os -std=c11 -fno-c"
 3419      2D616269 
 3419      3D736F66 
 3419      74202D6D 
 3419      61726368 
 3420 0467 6F6D6D6F 		.ascii	"ommon\000"
 3420      6E00
 3421              	.LASF56:
 3422 046d 636F6E66 		.ascii	"confidence\000"
 3422      6964656E 
 3422      636500
 3423              	.LASF58:
 3424 0478 73616D70 		.ascii	"sampleMean\000"
 3424      6C654D65 
 3424      616E00
 3425              	.LASF88:
 3426 0483 5F5F6165 		.ascii	"__aeabi_fdiv\000"
 3426      6162695F 
 3426      66646976 
ARM GAS  /tmp/cctFGGIe.s 			page 70


 3426      00
 3427              	.LASF83:
 3428 0490 6D61675F 		.ascii	"mag_kp1\000"
 3428      6B703100 
 3429              	.LASF28:
 3430 0498 41524D5F 		.ascii	"ARM_MATH_LENGTH_ERROR\000"
 3430      4D415448 
 3430      5F4C454E 
 3430      4754485F 
 3430      4552524F 
 3431              	.LASF92:
 3432 04ae 7372632F 		.ascii	"src/main.c\000"
 3432      6D61696E 
 3432      2E6300
 3433              	.LASF43:
 3434 04b9 61726D5F 		.ascii	"arm_cfft_radix2_instance_q15\000"
 3434      63666674 
 3434      5F726164 
 3434      6978325F 
 3434      696E7374 
 3435              	.LASF48:
 3436 04d6 5F5F6572 		.ascii	"__errno\000"
 3436      726E6F00 
 3437              		.ident	"GCC: (Arm GNU Toolchain 13.3.Rel1 (Build arm-13.24)) 13.3.1 20240614"
ARM GAS  /tmp/cctFGGIe.s 			page 71


DEFINED SYMBOLS
                            *ABS*:00000000 main.c
     /tmp/cctFGGIe.s:24     .text:00000000 $t
     /tmp/cctFGGIe.s:30     .text:00000000 DSP_process
     /tmp/cctFGGIe.s:470    .text:000001f8 $d
     /tmp/cctFGGIe.s:488    .text.startup:00000000 $t
     /tmp/cctFGGIe.s:494    .text.startup:00000000 main
     /tmp/cctFGGIe.s:572    .text.startup:0000005c $d
     /tmp/cctFGGIe.s:879    .bss:00000804 fft_inst
     /tmp/cctFGGIe.s:874    .bss:00000800 sampleMean
     /tmp/cctFGGIe.s:904    .bss:00000c20 hr_values
     /tmp/cctFGGIe.s:900    .bss:00000c1e confidence
     /tmp/cctFGGIe.s:887    .bss:00000c14 noisefloor
     /tmp/cctFGGIe.s:892    .bss:00000c18 maxIndex
     /tmp/cctFGGIe.s:896    .bss:00000c1c maxVal
     /tmp/cctFGGIe.s:870    .bss:00000000 input
     /tmp/cctFGGIe.s:855    .data:00000200 pSPO2_RED
     /tmp/cctFGGIe.s:859    .data:00000204 pSPO2_IR
     /tmp/cctFGGIe.s:863    .data:00000208 pPPG_Sample
     /tmp/cctFGGIe.s:908    .bss:00000c24 __errno
     /tmp/cctFGGIe.s:596    .data:00000000 hamming
     /tmp/cctFGGIe.s:592    .data:00000000 $d
     /tmp/cctFGGIe.s:866    .bss:00000000 $d
     /tmp/cctFGGIe.s:883    .bss:00000814 mag

UNDEFINED SYMBOLS
__aeabi_i2f
__aeabi_fsub
__aeabi_fmul
__aeabi_fadd
__aeabi_fdiv
__aeabi_ui2f
memset
arm_mean_q15
arm_shift_q15
arm_cfft_radix2_q15
arm_cmplx_mag_q15
arm_max_q15
logf
adc_buffer
__aeabi_f2uiz
X_Clock_Init
spi_init
TIM2_Init
adc_init_cont
led_init
arm_cfft_radix2_init_q15
start_process
_us_delay
spi_transmit
ACC_COMP
