ARM GAS  /tmp/ccAKwby4.s 			page 1


   1              		.cpu cortex-m3
   2              		.arch armv7-m
   3              		.fpu softvfp
   4              		.eabi_attribute 20, 1
   5              		.eabi_attribute 21, 1
   6              		.eabi_attribute 23, 3
   7              		.eabi_attribute 24, 1
   8              		.eabi_attribute 25, 1
   9              		.eabi_attribute 26, 1
  10              		.eabi_attribute 30, 4
  11              		.eabi_attribute 34, 1
  12              		.eabi_attribute 18, 4
  13              		.file	"main.c"
  14              		.text
  15              	.Ltext0:
  16              		.cfi_sections	.debug_frame
  17              		.file 1 "src/main.c"
  18              		.global	__aeabi_i2f
  19              		.global	__aeabi_fsub
  20              		.global	__aeabi_fmul
  21              		.global	__aeabi_fadd
  22              		.global	__aeabi_fdiv
  23              		.global	__aeabi_ui2f
  24              		.align	1
  25              		.global	DSP_process
  26              		.syntax unified
  27              		.thumb
  28              		.thumb_func
  29              		.type	DSP_process, %function
  30              	DSP_process:
  31              	.LFB122:
   1:src/main.c    **** /**
   2:src/main.c    ****  * @file    main.c
   3:src/main.c    ****  * @brief   Test application entry point for connectHeart peripheral and DSP library STM32 project
   4:src/main.c    ****  * @author  Umesh Puri
   5:src/main.c    ****  * @date    2025-06-02
   6:src/main.c    ****  * @version 1.0
   7:src/main.c    ****  *
   8:src/main.c    ****  * This is a simple test main file for initial development and verification
   9:src/main.c    ****  * of connectHeart peripherals and DSP library functionality on STM32F103.
  10:src/main.c    ****  *
  11:src/main.c    ****  * @license MIT License
  12:src/main.c    ****  * Copyright (c) 2025 Umesh
  13:src/main.c    ****  */
  14:src/main.c    **** 
  15:src/main.c    **** // #define ARM_MATH_CM3
  16:src/main.c    **** #include "stm32f1xx.h"
  17:src/main.c    **** #include "core_cm3.h"
  18:src/main.c    **** #include "arm_math.h"
  19:src/main.c    **** #include <stdint.h>
  20:src/main.c    **** #include <stdio.h>
  21:src/main.c    **** 
  22:src/main.c    **** #include "HSE_CLK.h"
  23:src/main.c    **** #include "delay.h"
  24:src/main.c    **** #include "spi.h"
  25:src/main.c    **** #include "adc.h"
  26:src/main.c    **** #include "ledconf.h"
ARM GAS  /tmp/ccAKwby4.s 			page 2


  27:src/main.c    **** #include "hamming.h"
  28:src/main.c    **** 
  29:src/main.c    **** #define FFT_SIZE 256
  30:src/main.c    **** #define PPG_SAMP (&adc_buffer[0])
  31:src/main.c    **** #define SPO2_IR (&adc_buffer[1])
  32:src/main.c    **** #define SPO2_RED (&adc_buffer[2])
  33:src/main.c    **** 
  34:src/main.c    **** int __errno = 0;
  35:src/main.c    **** 
  36:src/main.c    **** int16_t *pPPG_Sample = PPG_SAMP; // pointer for Green
  37:src/main.c    **** int16_t *pSPO2_IR = SPO2_IR;     // pointer for IR
  38:src/main.c    **** int16_t *pSPO2_RED = SPO2_RED;   // pointer for RED
  39:src/main.c    **** q15_t input[FFT_SIZE * 2];
  40:src/main.c    **** 
  41:src/main.c    **** static q15_t mag[FFT_SIZE] = {0};
  42:src/main.c    **** //static int16_t peak[FFT_SIZE] = {0};
  43:src/main.c    **** //static q15_t reals[FFT_SIZE] = {0};
  44:src/main.c    **** q15_t maxVal = 0;
  45:src/main.c    **** uint32_t maxIndex = 0;
  46:src/main.c    **** uint32_t mean_value = 0;
  47:src/main.c    **** q15_t noisefloor = 0;
  48:src/main.c    **** volatile q15_t confidence = 0;
  49:src/main.c    **** volatile float32_t hr_values = 0.0f;
  50:src/main.c    **** q15_t sampleMean = 0;
  51:src/main.c    **** //int16_t j = 0;
  52:src/main.c    **** 
  53:src/main.c    **** arm_cfft_radix4_instance_q15 fft_inst;
  54:src/main.c    **** arm_cfft_radix4_instance_q15 Ifft_inst;
  55:src/main.c    **** void DSP_process(void); // DSP_process function prototype
  56:src/main.c    **** //float32_t calculate_heart_rate(const int16_t *peak_indices);
  57:src/main.c    **** 
  58:src/main.c    **** void DSP_process(void); // DSP_process function prototype
  59:src/main.c    **** 
  60:src/main.c    **** int main(void)
  61:src/main.c    **** {
  62:src/main.c    ****    // Peripheral and process initialization
  63:src/main.c    ****    X_Clock_Init();  // 72MHz CLK
  64:src/main.c    ****    spi_init();      // SPI initialization
  65:src/main.c    ****    TIM2_Init();     // TIM2 Delay initialization
  66:src/main.c    ****    adc_init_cont(); // ADC  initialization
  67:src/main.c    ****    led_init();      // LEDs initialization
  68:src/main.c    **** 
  69:src/main.c    ****    arm_cfft_radix4_init_q15(&fft_inst, FFT_SIZE, 0, 1);  // forward FFT
  70:src/main.c    ****    //arm_cfft_radix4_init_q15(&Ifft_inst, FFT_SIZE, 1, 1); // IFFT
  71:src/main.c    **** 
  72:src/main.c    ****    while (1)
  73:src/main.c    ****    {
  74:src/main.c    ****       if (ACC_COMP)
  75:src/main.c    ****       {
  76:src/main.c    **** 
  77:src/main.c    ****          ACC_COMP = false;
  78:src/main.c    ****          DSP_process(); // call DSP_process
  79:src/main.c    ****        
  80:src/main.c    ****          // after completion of DSP start the process again
  81:src/main.c    ****          start_process();
  82:src/main.c    ****       }else{
  83:src/main.c    **** 
ARM GAS  /tmp/ccAKwby4.s 			page 3


  84:src/main.c    ****       _us_delay(50);
  85:src/main.c    ****       spi_transmit(hr_values, confidence);
  86:src/main.c    ****       _us_delay(50);
  87:src/main.c    ****       }
  88:src/main.c    ****    }
  89:src/main.c    ****    return 0;
  90:src/main.c    **** }
  91:src/main.c    **** 
  92:src/main.c    **** void DSP_process(void)
  93:src/main.c    **** {
  32              		.loc 1 93 1 view -0
  33              		.cfi_startproc
  34              		@ args = 0, pretend = 0, frame = 0
  35              		@ frame_needed = 0, uses_anonymous_args = 0
  94:src/main.c    **** 
  95:src/main.c    ****    for (uint16_t i = 0; i < FFT_SIZE; i++)
  36              		.loc 1 95 4 view .LVU1
  37              	.LBB2:
  38              		.loc 1 95 9 view .LVU2
  39              	.LVL0:
  40              		.loc 1 95 27 discriminator 1 view .LVU3
  41              	.LBE2:
  93:src/main.c    **** 
  42              		.loc 1 93 1 is_stmt 0 view .LVU4
  43 0000 2DE9F84F 		push	{r3, r4, r5, r6, r7, r8, r9, r10, fp, lr}
  44              		.cfi_def_cfa_offset 40
  45              		.cfi_offset 3, -40
  46              		.cfi_offset 4, -36
  47              		.cfi_offset 5, -32
  48              		.cfi_offset 6, -28
  49              		.cfi_offset 7, -24
  50              		.cfi_offset 8, -20
  51              		.cfi_offset 9, -16
  52              		.cfi_offset 10, -12
  53              		.cfi_offset 11, -8
  54              		.cfi_offset 14, -4
  93:src/main.c    **** 
  55              		.loc 1 93 1 view .LVU5
  56 0004 0023     		movs	r3, #0
  57 0006 7C4E     		ldr	r6, .L30
  58              	.LBB3:
  96:src/main.c    ****    {
  97:src/main.c    ****       input[i * 2] = (adc_buffer[i * 3]);
  98:src/main.c    ****       input[(i * 2) + 1] = 0;
  59              		.loc 1 98 26 view .LVU6
  60 0008 1946     		mov	r1, r3
  61              	.LBE3:
  93:src/main.c    **** 
  62              		.loc 1 93 1 view .LVU7
  63 000a 3246     		mov	r2, r6
  64 000c 3446     		mov	r4, r6
  65              	.LBB4:
  97:src/main.c    ****       input[(i * 2) + 1] = 0;
  66              		.loc 1 97 33 view .LVU8
  67 000e 7B4D     		ldr	r5, .L30+4
  68              	.LVL1:
  69              	.L2:
ARM GAS  /tmp/ccAKwby4.s 			page 4


  97:src/main.c    ****       input[(i * 2) + 1] = 0;
  70              		.loc 1 97 7 is_stmt 1 view .LVU9
  97:src/main.c    ****       input[(i * 2) + 1] = 0;
  71              		.loc 1 97 33 is_stmt 0 view .LVU10
  72 0010 35F81300 		ldrh	r0, [r5, r3, lsl #1]
  95:src/main.c    ****    {
  73              		.loc 1 95 27 discriminator 1 view .LVU11
  74 0014 0333     		adds	r3, r3, #3
  75              	.LVL2:
  95:src/main.c    ****    {
  76              		.loc 1 95 27 discriminator 1 view .LVU12
  77 0016 B3F5407F 		cmp	r3, #768
  97:src/main.c    ****       input[(i * 2) + 1] = 0;
  78              		.loc 1 97 20 view .LVU13
  79 001a 1080     		strh	r0, [r2]	@ movhi
  80              		.loc 1 98 7 is_stmt 1 view .LVU14
  81              		.loc 1 98 26 is_stmt 0 view .LVU15
  82 001c 5180     		strh	r1, [r2, #2]	@ movhi
  95:src/main.c    ****    {
  83              		.loc 1 95 40 is_stmt 1 discriminator 3 view .LVU16
  84              	.LVL3:
  95:src/main.c    ****    {
  85              		.loc 1 95 27 discriminator 1 view .LVU17
  86 001e 02F10402 		add	r2, r2, #4
  87 0022 F5D1     		bne	.L2
  88              	.LBE4:
  99:src/main.c    ****    }
 100:src/main.c    ****    // get mean of input
 101:src/main.c    ****    arm_mean_q15(&input[0], FFT_SIZE * 2, &sampleMean);
  89              		.loc 1 101 4 view .LVU18
  90              	.LBB5:
  91              	.LBB6:
 102:src/main.c    **** 
 103:src/main.c    ****    // remove dc component
 104:src/main.c    ****    for (uint16_t i = 0; i < FFT_SIZE; i++)
 105:src/main.c    ****    {
 106:src/main.c    ****       input[i * 2] = input[i * 2] - (sampleMean << 1); // compensate the means of interleved array 
  92              		.loc 1 106 49 is_stmt 0 view .LVU19
  93 0024 0025     		movs	r5, #0
 107:src/main.c    ****       int32_t temp = (int32_t)input[i * 2] * hamming[i];  // Q15 * Q15 = Q30
 108:src/main.c    ****       input[i * 2] = (q15_t)__SSAT((temp >> 15), 16);     // Back to Q15 and saturate to 16-bit
 109:src/main.c    ****       input[(i * 2) + 1] = 0;
  94              		.loc 1 109 26 view .LVU20
  95 0026 2F46     		mov	r7, r5
  96              	.LBE6:
  97              	.LBE5:
 101:src/main.c    **** 
  98              		.loc 1 101 4 view .LVU21
  99 0028 754A     		ldr	r2, .L30+8
 100 002a 4FF40071 		mov	r1, #512
 101 002e A2F58060 		sub	r0, r2, #1024
 102 0032 FFF7FEFF 		bl	arm_mean_q15
 103              	.LVL4:
 104:src/main.c    ****    {
 104              		.loc 1 104 4 is_stmt 1 view .LVU22
 105              	.LBB13:
 104:src/main.c    ****    {
ARM GAS  /tmp/ccAKwby4.s 			page 5


 106              		.loc 1 104 9 view .LVU23
 104:src/main.c    ****    {
 107              		.loc 1 104 27 discriminator 1 view .LVU24
 108              	.LBB10:
 106:src/main.c    ****       int32_t temp = (int32_t)input[i * 2] * hamming[i];  // Q15 * Q15 = Q30
 109              		.loc 1 106 49 is_stmt 0 view .LVU25
 110 0036 B4F80014 		ldrh	r1, [r4, #1024]
 111 003a 7248     		ldr	r0, .L30+12
 112 003c 4900     		lsls	r1, r1, #1
 113 003e 6E4A     		ldr	r2, .L30
 114 0040 89B2     		uxth	r1, r1
 115              	.LVL5:
 116              	.L3:
 106:src/main.c    ****       int32_t temp = (int32_t)input[i * 2] * hamming[i];  // Q15 * Q15 = Q30
 117              		.loc 1 106 7 is_stmt 1 view .LVU26
 107:src/main.c    ****       input[i * 2] = (q15_t)__SSAT((temp >> 15), 16);     // Back to Q15 and saturate to 16-bit
 118              		.loc 1 107 7 view .LVU27
 106:src/main.c    ****       int32_t temp = (int32_t)input[i * 2] * hamming[i];  // Q15 * Q15 = Q30
 119              		.loc 1 106 35 is_stmt 0 view .LVU28
 120 0042 1388     		ldrh	r3, [r2]
 107:src/main.c    ****       input[i * 2] = (q15_t)__SSAT((temp >> 15), 16);     // Back to Q15 and saturate to 16-bit
 121              		.loc 1 107 53 view .LVU29
 122 0044 30F902CB 		ldrsh	ip, [r0], #2
 123              	.LVL6:
 108:src/main.c    ****       input[(i * 2) + 1] = 0;
 124              		.loc 1 108 7 is_stmt 1 view .LVU30
 125              	.LBB7:
 108:src/main.c    ****       input[(i * 2) + 1] = 0;
 126              		.loc 1 108 29 view .LVU31
 108:src/main.c    ****       input[(i * 2) + 1] = 0;
 127              		.loc 1 108 29 view .LVU32
 128              	.LBE7:
 106:src/main.c    ****       int32_t temp = (int32_t)input[i * 2] * hamming[i];  // Q15 * Q15 = Q30
 129              		.loc 1 106 35 is_stmt 0 view .LVU33
 130 0048 5B1A     		subs	r3, r3, r1
 107:src/main.c    ****       input[i * 2] = (q15_t)__SSAT((temp >> 15), 16);     // Back to Q15 and saturate to 16-bit
 131              		.loc 1 107 22 view .LVU34
 132 004a 1BB2     		sxth	r3, r3
 107:src/main.c    ****       input[i * 2] = (q15_t)__SSAT((temp >> 15), 16);     // Back to Q15 and saturate to 16-bit
 133              		.loc 1 107 15 view .LVU35
 134 004c 0CFB03F3 		mul	r3, ip, r3
 135              	.LBE10:
 104:src/main.c    ****    {
 136              		.loc 1 104 27 discriminator 1 view .LVU36
 137 0050 0135     		adds	r5, r5, #1
 138              	.LVL7:
 104:src/main.c    ****    {
 139              		.loc 1 104 27 discriminator 1 view .LVU37
 140 0052 B5F5807F 		cmp	r5, #256
 141              	.LBB11:
 142              	.LBB8:
 108:src/main.c    ****       input[(i * 2) + 1] = 0;
 143              		.loc 1 108 29 view .LVU38
 144 0056 4FEAE333 		asr	r3, r3, #15
 145              	.LBE8:
 146              		.loc 1 109 26 view .LVU39
 147 005a 5780     		strh	r7, [r2, #2]	@ movhi
ARM GAS  /tmp/ccAKwby4.s 			page 6


 148              	.LBB9:
 108:src/main.c    ****       input[(i * 2) + 1] = 0;
 149              		.loc 1 108 29 view .LVU40
 150              		.syntax unified
 151              	@ 108 "src/main.c" 1
 152 005c 03F30F03 		ssat r3, #16, r3
 153              	@ 0 "" 2
 154              	.LVL8:
 108:src/main.c    ****       input[(i * 2) + 1] = 0;
 155              		.loc 1 108 29 is_stmt 1 view .LVU41
 156              		.thumb
 157              		.syntax unified
 158              	.LBE9:
 159              	.LBE11:
 104:src/main.c    ****    {
 160              		.loc 1 104 27 is_stmt 0 discriminator 1 view .LVU42
 161 0060 02F10402 		add	r2, r2, #4
 162              	.LVL9:
 163              	.LBB12:
 108:src/main.c    ****       input[(i * 2) + 1] = 0;
 164              		.loc 1 108 22 view .LVU43
 165 0064 22F8043C 		strh	r3, [r2, #-4]	@ movhi
 166              	.LVL10:
 167              		.loc 1 109 7 is_stmt 1 view .LVU44
 168              	.LBE12:
 104:src/main.c    ****    {
 169              		.loc 1 104 40 discriminator 3 view .LVU45
 104:src/main.c    ****    {
 170              		.loc 1 104 27 discriminator 1 view .LVU46
 171 0068 EBD1     		bne	.L3
 172              	.LBE13:
 110:src/main.c    ****    }
 111:src/main.c    **** 
 112:src/main.c    ****    arm_shift_q15(input, 8, input, FFT_SIZE * 2);
 173              		.loc 1 112 4 view .LVU47
 174 006a 634A     		ldr	r2, .L30
 175 006c 4FF40073 		mov	r3, #512
 176              	.LVL11:
 177              		.loc 1 112 4 is_stmt 0 view .LVU48
 178 0070 1046     		mov	r0, r2
 179 0072 0821     		movs	r1, #8
 180 0074 FFF7FEFF 		bl	arm_shift_q15
 181              	.LVL12:
 113:src/main.c    ****    arm_cfft_radix4_q15(&fft_inst, input);
 182              		.loc 1 113 4 is_stmt 1 view .LVU49
 183 0078 5F49     		ldr	r1, .L30
 184 007a 01F20440 		addw	r0, r1, #1028
 185 007e FFF7FEFF 		bl	arm_cfft_radix4_q15
 186              	.LVL13:
 114:src/main.c    ****    arm_cmplx_mag_q15(input, mag, FFT_SIZE);
 187              		.loc 1 114 4 view .LVU50
 188 0082 6149     		ldr	r1, .L30+16
 189 0084 2A46     		mov	r2, r5
 190 0086 A1F21440 		subw	r0, r1, #1044
 191 008a FFF7FEFF 		bl	arm_cmplx_mag_q15
 192              	.LVL14:
 115:src/main.c    **** 
ARM GAS  /tmp/ccAKwby4.s 			page 7


 116:src/main.c    ****    // get noise floor before removing high bins
 117:src/main.c    ****    arm_mean_q15(&mag[0], FFT_SIZE, &noisefloor);
 193              		.loc 1 117 4 view .LVU51
 194 008e 5F4A     		ldr	r2, .L30+20
 195 0090 2946     		mov	r1, r5
 196 0092 A2F50070 		sub	r0, r2, #512
 197 0096 FFF7FEFF 		bl	arm_mean_q15
 198              	.LVL15:
 118:src/main.c    **** 
 119:src/main.c    ****      // remove noise component
 120:src/main.c    ****    for (uint16_t i = 0; i < FFT_SIZE; i++)
 199              		.loc 1 120 4 view .LVU52
 200              	.LBB14:
 201              		.loc 1 120 9 view .LVU53
 202              		.loc 1 120 27 discriminator 1 view .LVU54
 203 009a 5B4A     		ldr	r2, .L30+16
 204              		.loc 1 120 18 is_stmt 0 view .LVU55
 205 009c 0023     		movs	r3, #0
 206 009e 1046     		mov	r0, r2
 121:src/main.c    ****    {
 122:src/main.c    ****     mag[i] = mag[i] - noisefloor;
 207              		.loc 1 122 21 view .LVU56
 208 00a0 B4F81456 		ldrh	r5, [r4, #1556]
 209              	.LVL16:
 210              	.L4:
 211              		.loc 1 122 5 is_stmt 1 view .LVU57
 212              		.loc 1 122 17 is_stmt 0 view .LVU58
 213 00a4 B2F90010 		ldrsh	r1, [r2]
 120:src/main.c    ****    {
 214              		.loc 1 120 40 discriminator 3 view .LVU59
 215 00a8 0133     		adds	r3, r3, #1
 216              	.LVL17:
 120:src/main.c    ****    {
 217              		.loc 1 120 40 discriminator 3 view .LVU60
 218 00aa 9BB2     		uxth	r3, r3
 219              	.LVL18:
 220              		.loc 1 122 21 view .LVU61
 221 00ac 491B     		subs	r1, r1, r5
 120:src/main.c    ****    {
 222              		.loc 1 120 27 discriminator 1 view .LVU62
 223 00ae B3F5807F 		cmp	r3, #256
 224              		.loc 1 122 12 view .LVU63
 225 00b2 22F8021B 		strh	r1, [r2], #2	@ movhi
 120:src/main.c    ****    {
 226              		.loc 1 120 40 is_stmt 1 discriminator 3 view .LVU64
 227              	.LVL19:
 120:src/main.c    ****    {
 228              		.loc 1 120 27 discriminator 1 view .LVU65
 229 00b6 F5D1     		bne	.L4
 230              	.LBE14:
 123:src/main.c    ****    }
 124:src/main.c    **** 
 125:src/main.c    ****    // Bandpass filtering: zero out low and high frequencies
 126:src/main.c    ****    memset(&mag[0], 0, 5 * sizeof(q15_t)); // zero bins from 0 to 4 
 231              		.loc 1 126 4 view .LVU66
 232 00b8 0025     		movs	r5, #0
 127:src/main.c    ****    memset(&mag[21], 0, (FFT_SIZE - 21) * sizeof(q15_t)); // zero bins 21 to end
ARM GAS  /tmp/ccAKwby4.s 			page 8


 233              		.loc 1 127 4 is_stmt 0 view .LVU67
 234 00ba 4FF4EB72 		mov	r2, #470
 126:src/main.c    ****    memset(&mag[21], 0, (FFT_SIZE - 21) * sizeof(q15_t)); // zero bins 21 to end
 235              		.loc 1 126 4 view .LVU68
 236 00be C4F81454 		str	r5, [r4, #1044]	@ unaligned
 237              		.loc 1 127 4 view .LVU69
 238 00c2 2946     		mov	r1, r5
 126:src/main.c    ****    memset(&mag[21], 0, (FFT_SIZE - 21) * sizeof(q15_t)); // zero bins 21 to end
 239              		.loc 1 126 4 view .LVU70
 240 00c4 4560     		str	r5, [r0, #4]	@ unaligned
 241 00c6 0581     		strh	r5, [r0, #8]	@ movhi
 242              		.loc 1 127 4 is_stmt 1 view .LVU71
 243 00c8 5148     		ldr	r0, .L30+24
 244 00ca FFF7FEFF 		bl	memset
 245              	.LVL20:
 128:src/main.c    **** 
 129:src/main.c    ****    arm_max_q15(mag, FFT_SIZE / 2, &maxVal, &maxIndex);
 246              		.loc 1 129 4 view .LVU72
 247 00ce 514B     		ldr	r3, .L30+28
 248 00d0 8021     		movs	r1, #128
 249 00d2 1A1D     		adds	r2, r3, #4
 250 00d4 A3F50170 		sub	r0, r3, #516
 251 00d8 FFF7FEFF 		bl	arm_max_q15
 252              	.LVL21:
 130:src/main.c    **** 
 131:src/main.c    ****   
 132:src/main.c    **** 
 133:src/main.c    ****    confidence = (noisefloor > 0) ? maxVal / noisefloor : 0;
 253              		.loc 1 133 4 view .LVU73
 254              		.loc 1 133 29 is_stmt 0 view .LVU74
 255 00dc B4F91436 		ldrsh	r3, [r4, #1556]
 256              		.loc 1 133 15 view .LVU75
 257 00e0 AB42     		cmp	r3, r5
 258              		.loc 1 133 43 discriminator 1 view .LVU76
 259 00e2 C2BF     		ittt	gt
 260 00e4 B4F91C56 		ldrshgt	r5, [r4, #1564]
 261 00e8 95FBF3F5 		sdivgt	r5, r5, r3
 262              		.loc 1 133 15 discriminator 1 view .LVU77
 263 00ec 2DB2     		sxthgt	r5, r5
 264              		.loc 1 133 15 discriminator 4 view .LVU78
 265 00ee A4F81E56 		strh	r5, [r4, #1566]	@ movhi
 134:src/main.c    **** 
 135:src/main.c    ****    if (confidence < 5) // threshold confidence
 266              		.loc 1 135 4 is_stmt 1 view .LVU79
 267              		.loc 1 135 19 is_stmt 0 view .LVU80
 268 00f2 B4F81E36 		ldrh	r3, [r4, #1566]
 269 00f6 1BB2     		sxth	r3, r3
 270              		.loc 1 135 7 view .LVU81
 271 00f8 042B     		cmp	r3, #4
 272 00fa 04DC     		bgt	.L6
 136:src/main.c    ****    {
 137:src/main.c    ****       hr_values = 0;
 273              		.loc 1 137 7 is_stmt 1 view .LVU82
 274              		.loc 1 137 17 is_stmt 0 view .LVU83
 275 00fc 0023     		movs	r3, #0
 276              	.L8:
 138:src/main.c    ****       return;
ARM GAS  /tmp/ccAKwby4.s 			page 9


 139:src/main.c    ****    }
 140:src/main.c    ****    // Zero all bins except max bin and symmetric bin
 141:src/main.c    ****    if (maxIndex != 0 && maxIndex != FFT_SIZE - 1)
 142:src/main.c    ****    {
 143:src/main.c    ****       for (uint16_t i = 0; i < FFT_SIZE; i++)
 144:src/main.c    ****       {
 145:src/main.c    ****          if ((i != maxIndex) && (i != maxIndex + 1) && (i != maxIndex - 1))
 146:src/main.c    ****          {
 147:src/main.c    ****             input[2 * i] = 0;
 148:src/main.c    ****             input[2 * i + 1] = 0;
 149:src/main.c    ****          }
 150:src/main.c    ****       }
 151:src/main.c    ****    }
 152:src/main.c    ****    else
 153:src/main.c    ****    {
 154:src/main.c    ****       hr_values = 0;
 277              		.loc 1 154 7 is_stmt 1 view .LVU84
 278              		.loc 1 154 17 is_stmt 0 view .LVU85
 279 00fe C4F82036 		str	r3, [r4, #1568]	@ float
 155:src/main.c    ****       return;
 280              		.loc 1 155 7 is_stmt 1 view .LVU86
 281              	.L1:
 156:src/main.c    ****    }
 157:src/main.c    **** 
 158:src/main.c    **** 
 159:src/main.c    **** //quadratic interpolation based estimation 
 160:src/main.c    **** float32_t delta, refined_freq;
 161:src/main.c    **** float32_t mag_km1 =(mag[maxIndex - 1]);
 162:src/main.c    **** mag_km1 = (mag_km1 <= 0)? 0.001f:mag_km1;
 163:src/main.c    **** float32_t mag_k   =(mag[maxIndex]);
 164:src/main.c    **** mag_k = (mag_k <= 0)? 0.001f:mag_k;
 165:src/main.c    **** float32_t mag_kp1 =(mag[maxIndex + 1]);
 166:src/main.c    **** mag_kp1 = (mag_kp1 <= 0)? 0.001f:mag_kp1;
 167:src/main.c    **** 
 168:src/main.c    **** //delta = (mag_km1 - mag_kp1) / (2 * (mag_km1 - 2 * mag_k + mag_kp1));
 169:src/main.c    **** //log-magnitude interpolation
 170:src/main.c    **** delta = 0.5f * (logf(mag_km1) - logf(mag_kp1)) / (logf(mag_km1) - 2 * logf(mag_k) + logf(mag_kp1));
 171:src/main.c    **** 
 172:src/main.c    **** refined_freq = ((float32_t)maxIndex + delta) * 0.22f;
 173:src/main.c    **** hr_values = (60.00f) * refined_freq;
 174:src/main.c    **** 
 175:src/main.c    **** 
 176:src/main.c    **** }
 282              		.loc 1 176 1 is_stmt 0 view .LVU87
 283 0102 BDE8F88F 		pop	{r3, r4, r5, r6, r7, r8, r9, r10, fp, pc}
 284              	.L6:
 141:src/main.c    ****    {
 285              		.loc 1 141 4 is_stmt 1 view .LVU88
 141:src/main.c    ****    {
 286              		.loc 1 141 17 is_stmt 0 view .LVU89
 287 0106 D4F81856 		ldr	r5, [r4, #1560]
 288 010a 0023     		movs	r3, #0
 141:src/main.c    ****    {
 289              		.loc 1 141 7 view .LVU90
 290 010c 002D     		cmp	r5, #0
 291 010e F6D0     		beq	.L8
 141:src/main.c    ****    {
ARM GAS  /tmp/ccAKwby4.s 			page 10


 292              		.loc 1 141 22 discriminator 1 view .LVU91
 293 0110 FF2D     		cmp	r5, #255
 294 0112 F4D0     		beq	.L8
 295              	.LBB15:
 147:src/main.c    ****             input[2 * i + 1] = 0;
 296              		.loc 1 147 26 view .LVU92
 297 0114 1946     		mov	r1, r3
 145:src/main.c    ****          {
 298              		.loc 1 145 48 discriminator 1 view .LVU93
 299 0116 05F10109 		add	r9, r5, #1
 145:src/main.c    ****          {
 300              		.loc 1 145 71 discriminator 2 view .LVU94
 301 011a 6A1E     		subs	r2, r5, #1
 302              	.L10:
 303              	.LVL22:
 145:src/main.c    ****          {
 304              		.loc 1 145 10 is_stmt 1 view .LVU95
 145:src/main.c    ****          {
 305              		.loc 1 145 13 is_stmt 0 view .LVU96
 306 011c 9D42     		cmp	r5, r3
 307 011e 05D0     		beq	.L9
 145:src/main.c    ****          {
 308              		.loc 1 145 30 discriminator 1 view .LVU97
 309 0120 4B45     		cmp	r3, r9
 310 0122 03D0     		beq	.L9
 145:src/main.c    ****          {
 311              		.loc 1 145 53 discriminator 2 view .LVU98
 312 0124 9342     		cmp	r3, r2
 147:src/main.c    ****             input[2 * i + 1] = 0;
 313              		.loc 1 147 13 is_stmt 1 view .LVU99
 147:src/main.c    ****             input[2 * i + 1] = 0;
 314              		.loc 1 147 26 is_stmt 0 view .LVU100
 315 0126 1CBF     		itt	ne
 316 0128 3180     		strhne	r1, [r6]	@ movhi
 148:src/main.c    ****          }
 317              		.loc 1 148 13 is_stmt 1 view .LVU101
 148:src/main.c    ****          }
 318              		.loc 1 148 30 is_stmt 0 view .LVU102
 319 012a 7180     		strhne	r1, [r6, #2]	@ movhi
 320              	.L9:
 143:src/main.c    ****       {
 321              		.loc 1 143 43 is_stmt 1 discriminator 2 view .LVU103
 322              	.LVL23:
 143:src/main.c    ****       {
 323              		.loc 1 143 30 discriminator 1 view .LVU104
 324 012c 0133     		adds	r3, r3, #1
 325              	.LVL24:
 143:src/main.c    ****       {
 326              		.loc 1 143 30 is_stmt 0 discriminator 1 view .LVU105
 327 012e B3F5807F 		cmp	r3, #256
 328 0132 06F10406 		add	r6, r6, #4
 329 0136 F1D1     		bne	.L10
 330              	.LBE15:
 160:src/main.c    **** float32_t mag_km1 =(mag[maxIndex - 1]);
 331              		.loc 1 160 1 is_stmt 1 view .LVU106
 161:src/main.c    **** mag_km1 = (mag_km1 <= 0)? 0.001f:mag_km1;
 332              		.loc 1 161 1 view .LVU107
ARM GAS  /tmp/ccAKwby4.s 			page 11


 161:src/main.c    **** mag_km1 = (mag_km1 <= 0)? 0.001f:mag_km1;
 333              		.loc 1 161 24 is_stmt 0 view .LVU108
 334 0138 04EB4202 		add	r2, r4, r2, lsl #1
 335 013c B2F91404 		ldrsh	r0, [r2, #1044]
 336              	.LVL25:
 162:src/main.c    **** float32_t mag_k   =(mag[maxIndex]);
 337              		.loc 1 162 1 is_stmt 1 view .LVU109
 162:src/main.c    **** float32_t mag_k   =(mag[maxIndex]);
 338              		.loc 1 162 33 is_stmt 0 view .LVU110
 339 0140 0028     		cmp	r0, #0
 340 0142 51DD     		ble	.L16
 161:src/main.c    **** mag_km1 = (mag_km1 <= 0)? 0.001f:mag_km1;
 341              		.loc 1 161 11 view .LVU111
 342 0144 FFF7FEFF 		bl	__aeabi_i2f
 343              	.LVL26:
 161:src/main.c    **** mag_km1 = (mag_km1 <= 0)? 0.001f:mag_km1;
 344              		.loc 1 161 11 view .LVU112
 345 0148 0746     		mov	r7, r0
 346              	.L12:
 347              	.LVL27:
 163:src/main.c    **** mag_k = (mag_k <= 0)? 0.001f:mag_k;
 348              		.loc 1 163 1 is_stmt 1 view .LVU113
 163:src/main.c    **** mag_k = (mag_k <= 0)? 0.001f:mag_k;
 349              		.loc 1 163 24 is_stmt 0 view .LVU114
 350 014a 04EB4503 		add	r3, r4, r5, lsl #1
 351 014e B3F91404 		ldrsh	r0, [r3, #1044]
 352              	.LVL28:
 164:src/main.c    **** float32_t mag_kp1 =(mag[maxIndex + 1]);
 353              		.loc 1 164 1 is_stmt 1 view .LVU115
 164:src/main.c    **** float32_t mag_kp1 =(mag[maxIndex + 1]);
 354              		.loc 1 164 29 is_stmt 0 view .LVU116
 355 0152 0028     		cmp	r0, #0
 356 0154 4ADD     		ble	.L17
 163:src/main.c    **** mag_k = (mag_k <= 0)? 0.001f:mag_k;
 357              		.loc 1 163 11 view .LVU117
 358 0156 FFF7FEFF 		bl	__aeabi_i2f
 359              	.LVL29:
 163:src/main.c    **** mag_k = (mag_k <= 0)? 0.001f:mag_k;
 360              		.loc 1 163 11 view .LVU118
 361 015a 8046     		mov	r8, r0
 362              	.L13:
 363              	.LVL30:
 165:src/main.c    **** mag_kp1 = (mag_kp1 <= 0)? 0.001f:mag_kp1;
 364              		.loc 1 165 1 is_stmt 1 view .LVU119
 165:src/main.c    **** mag_kp1 = (mag_kp1 <= 0)? 0.001f:mag_kp1;
 365              		.loc 1 165 24 is_stmt 0 view .LVU120
 366 015c 04EB4909 		add	r9, r4, r9, lsl #1
 367 0160 B9F91404 		ldrsh	r0, [r9, #1044]
 368              	.LVL31:
 166:src/main.c    **** 
 369              		.loc 1 166 1 is_stmt 1 view .LVU121
 166:src/main.c    **** 
 370              		.loc 1 166 33 is_stmt 0 view .LVU122
 371 0164 0028     		cmp	r0, #0
 372 0166 44DD     		ble	.L18
 165:src/main.c    **** mag_kp1 = (mag_kp1 <= 0)? 0.001f:mag_kp1;
 373              		.loc 1 165 11 view .LVU123
ARM GAS  /tmp/ccAKwby4.s 			page 12


 374 0168 FFF7FEFF 		bl	__aeabi_i2f
 375              	.LVL32:
 165:src/main.c    **** mag_kp1 = (mag_kp1 <= 0)? 0.001f:mag_kp1;
 376              		.loc 1 165 11 view .LVU124
 377 016c 0646     		mov	r6, r0
 378              	.L14:
 379              	.LVL33:
 170:src/main.c    **** 
 380              		.loc 1 170 1 is_stmt 1 view .LVU125
 170:src/main.c    **** 
 381              		.loc 1 170 17 is_stmt 0 view .LVU126
 382 016e 3846     		mov	r0, r7
 383 0170 FFF7FEFF 		bl	logf
 384              	.LVL34:
 385 0174 8146     		mov	r9, r0
 170:src/main.c    **** 
 386              		.loc 1 170 33 discriminator 1 view .LVU127
 387 0176 3046     		mov	r0, r6
 388 0178 FFF7FEFF 		bl	logf
 389              	.LVL35:
 390 017c 8346     		mov	fp, r0
 170:src/main.c    **** 
 391              		.loc 1 170 51 discriminator 2 view .LVU128
 392 017e 3846     		mov	r0, r7
 393 0180 FFF7FEFF 		bl	logf
 394              	.LVL36:
 395 0184 0746     		mov	r7, r0
 396              	.LVL37:
 170:src/main.c    **** 
 397              		.loc 1 170 71 discriminator 3 view .LVU129
 398 0186 4046     		mov	r0, r8
 399 0188 FFF7FEFF 		bl	logf
 400              	.LVL38:
 401 018c 8046     		mov	r8, r0
 402              	.LVL39:
 170:src/main.c    **** 
 403              		.loc 1 170 85 discriminator 4 view .LVU130
 404 018e 3046     		mov	r0, r6
 405 0190 FFF7FEFF 		bl	logf
 406              	.LVL40:
 170:src/main.c    **** 
 407              		.loc 1 170 31 discriminator 2 view .LVU131
 408 0194 5946     		mov	r1, fp
 170:src/main.c    **** 
 409              		.loc 1 170 85 discriminator 4 view .LVU132
 410 0196 8246     		mov	r10, r0
 411              	.LVL41:
 172:src/main.c    **** hr_values = (60.00f) * refined_freq;
 412              		.loc 1 172 1 is_stmt 1 view .LVU133
 173:src/main.c    **** 
 413              		.loc 1 173 1 view .LVU134
 170:src/main.c    **** 
 414              		.loc 1 170 31 is_stmt 0 discriminator 2 view .LVU135
 415 0198 4846     		mov	r0, r9
 416              	.LVL42:
 170:src/main.c    **** 
 417              		.loc 1 170 31 discriminator 2 view .LVU136
ARM GAS  /tmp/ccAKwby4.s 			page 13


 418 019a FFF7FEFF 		bl	__aeabi_fsub
 419              	.LVL43:
 170:src/main.c    **** 
 420              		.loc 1 170 14 discriminator 2 view .LVU137
 421 019e 4FF07C51 		mov	r1, #1056964608
 422 01a2 FFF7FEFF 		bl	__aeabi_fmul
 423              	.LVL44:
 170:src/main.c    **** 
 424              		.loc 1 170 69 discriminator 4 view .LVU138
 425 01a6 4146     		mov	r1, r8
 170:src/main.c    **** 
 426              		.loc 1 170 14 discriminator 2 view .LVU139
 427 01a8 0646     		mov	r6, r0
 428              	.LVL45:
 170:src/main.c    **** 
 429              		.loc 1 170 69 discriminator 4 view .LVU140
 430 01aa 4046     		mov	r0, r8
 431 01ac FFF7FEFF 		bl	__aeabi_fadd
 432              	.LVL46:
 433 01b0 0146     		mov	r1, r0
 170:src/main.c    **** 
 434              		.loc 1 170 65 discriminator 4 view .LVU141
 435 01b2 3846     		mov	r0, r7
 436 01b4 FFF7FEFF 		bl	__aeabi_fsub
 437              	.LVL47:
 170:src/main.c    **** 
 438              		.loc 1 170 83 discriminator 5 view .LVU142
 439 01b8 5146     		mov	r1, r10
 440 01ba FFF7FEFF 		bl	__aeabi_fadd
 441              	.LVL48:
 442 01be 0146     		mov	r1, r0
 170:src/main.c    **** 
 443              		.loc 1 170 7 discriminator 5 view .LVU143
 444 01c0 3046     		mov	r0, r6
 445 01c2 FFF7FEFF 		bl	__aeabi_fdiv
 446              	.LVL49:
 447 01c6 0646     		mov	r6, r0
 172:src/main.c    **** hr_values = (60.00f) * refined_freq;
 448              		.loc 1 172 17 view .LVU144
 449 01c8 2846     		mov	r0, r5
 450 01ca FFF7FEFF 		bl	__aeabi_ui2f
 451              	.LVL50:
 452 01ce 0146     		mov	r1, r0
 172:src/main.c    **** hr_values = (60.00f) * refined_freq;
 453              		.loc 1 172 37 view .LVU145
 454 01d0 3046     		mov	r0, r6
 455 01d2 FFF7FEFF 		bl	__aeabi_fadd
 456              	.LVL51:
 172:src/main.c    **** hr_values = (60.00f) * refined_freq;
 457              		.loc 1 172 14 view .LVU146
 458 01d6 1049     		ldr	r1, .L30+32
 459 01d8 FFF7FEFF 		bl	__aeabi_fmul
 460              	.LVL52:
 173:src/main.c    **** 
 461              		.loc 1 173 22 view .LVU147
 462 01dc 0F49     		ldr	r1, .L30+36
 463 01de FFF7FEFF 		bl	__aeabi_fmul
ARM GAS  /tmp/ccAKwby4.s 			page 14


 464              	.LVL53:
 173:src/main.c    **** 
 465              		.loc 1 173 11 view .LVU148
 466 01e2 C4F82006 		str	r0, [r4, #1568]	@ float
 467 01e6 8CE7     		b	.L1
 468              	.LVL54:
 469              	.L16:
 162:src/main.c    **** float32_t mag_k   =(mag[maxIndex]);
 470              		.loc 1 162 33 discriminator 1 view .LVU149
 471 01e8 0D4F     		ldr	r7, .L30+40
 472 01ea AEE7     		b	.L12
 473              	.LVL55:
 474              	.L17:
 164:src/main.c    **** float32_t mag_kp1 =(mag[maxIndex + 1]);
 475              		.loc 1 164 29 discriminator 1 view .LVU150
 476 01ec DFF83080 		ldr	r8, .L30+40
 477 01f0 B4E7     		b	.L13
 478              	.LVL56:
 479              	.L18:
 166:src/main.c    **** 
 480              		.loc 1 166 33 discriminator 1 view .LVU151
 481 01f2 0B4E     		ldr	r6, .L30+40
 482 01f4 BBE7     		b	.L14
 483              	.L31:
 484 01f6 00BF     		.align	2
 485              	.L30:
 486 01f8 00000000 		.word	.LANCHOR0
 487 01fc 00000000 		.word	adc_buffer
 488 0200 00040000 		.word	.LANCHOR0+1024
 489 0204 00000000 		.word	.LANCHOR1
 490 0208 14040000 		.word	.LANCHOR0+1044
 491 020c 14060000 		.word	.LANCHOR0+1556
 492 0210 3E040000 		.word	.LANCHOR0+1086
 493 0214 18060000 		.word	.LANCHOR0+1560
 494 0218 AE47613E 		.word	1046562734
 495 021c 00007042 		.word	1114636288
 496 0220 6F12833A 		.word	981668463
 497              		.cfi_endproc
 498              	.LFE122:
 499              		.size	DSP_process, .-DSP_process
 500              		.global	__aeabi_f2uiz
 501              		.section	.text.startup,"ax",%progbits
 502              		.align	1
 503              		.global	main
 504              		.syntax unified
 505              		.thumb
 506              		.thumb_func
 507              		.type	main, %function
 508              	main:
 509              	.LFB121:
  61:src/main.c    ****    // Peripheral and process initialization
 510              		.loc 1 61 1 is_stmt 1 view -0
 511              		.cfi_startproc
 512              		@ Volatile: function does not return.
 513              		@ args = 0, pretend = 0, frame = 0
 514              		@ frame_needed = 0, uses_anonymous_args = 0
  63:src/main.c    ****    spi_init();      // SPI initialization
ARM GAS  /tmp/ccAKwby4.s 			page 15


 515              		.loc 1 63 4 view .LVU153
  61:src/main.c    ****    // Peripheral and process initialization
 516              		.loc 1 61 1 is_stmt 0 view .LVU154
 517 0000 08B5     		push	{r3, lr}
 518              		.cfi_def_cfa_offset 8
 519              		.cfi_offset 3, -8
 520              		.cfi_offset 14, -4
  63:src/main.c    ****    spi_init();      // SPI initialization
 521              		.loc 1 63 4 view .LVU155
 522 0002 FFF7FEFF 		bl	X_Clock_Init
 523              	.LVL57:
  64:src/main.c    ****    TIM2_Init();     // TIM2 Delay initialization
 524              		.loc 1 64 4 is_stmt 1 view .LVU156
 525 0006 FFF7FEFF 		bl	spi_init
 526              	.LVL58:
  65:src/main.c    ****    adc_init_cont(); // ADC  initialization
 527              		.loc 1 65 4 view .LVU157
 528 000a FFF7FEFF 		bl	TIM2_Init
 529              	.LVL59:
  66:src/main.c    ****    led_init();      // LEDs initialization
 530              		.loc 1 66 4 view .LVU158
 531 000e FFF7FEFF 		bl	adc_init_cont
 532              	.LVL60:
  67:src/main.c    **** 
 533              		.loc 1 67 4 view .LVU159
 534 0012 FFF7FEFF 		bl	led_init
 535              	.LVL61:
  69:src/main.c    ****    //arm_cfft_radix4_init_q15(&Ifft_inst, FFT_SIZE, 1, 1); // IFFT
 536              		.loc 1 69 4 view .LVU160
 537 0016 0123     		movs	r3, #1
 538 0018 0022     		movs	r2, #0
 539 001a 4FF48071 		mov	r1, #256
 540 001e 0F48     		ldr	r0, .L36
 541 0020 FFF7FEFF 		bl	arm_cfft_radix4_init_q15
 542              	.LVL62:
  74:src/main.c    ****       {
 543              		.loc 1 74 11 is_stmt 0 view .LVU161
 544 0024 0E4E     		ldr	r6, .L36+4
  85:src/main.c    ****       _us_delay(50);
 545              		.loc 1 85 7 view .LVU162
 546 0026 0F4D     		ldr	r5, .L36+8
 547              	.L33:
  72:src/main.c    ****    {
 548              		.loc 1 72 4 is_stmt 1 view .LVU163
  74:src/main.c    ****       {
 549              		.loc 1 74 7 view .LVU164
  74:src/main.c    ****       {
 550              		.loc 1 74 10 is_stmt 0 view .LVU165
 551 0028 3378     		ldrb	r3, [r6]	@ zero_extendqisi2
 552 002a 33B1     		cbz	r3, .L34
  77:src/main.c    ****          DSP_process(); // call DSP_process
 553              		.loc 1 77 10 is_stmt 1 view .LVU166
  77:src/main.c    ****          DSP_process(); // call DSP_process
 554              		.loc 1 77 19 is_stmt 0 view .LVU167
 555 002c 0023     		movs	r3, #0
 556 002e 3370     		strb	r3, [r6]
  78:src/main.c    ****        
ARM GAS  /tmp/ccAKwby4.s 			page 16


 557              		.loc 1 78 10 is_stmt 1 view .LVU168
 558 0030 FFF7FEFF 		bl	DSP_process
 559              	.LVL63:
  81:src/main.c    ****       }else{
 560              		.loc 1 81 10 view .LVU169
 561 0034 FFF7FEFF 		bl	start_process
 562              	.LVL64:
 563 0038 F6E7     		b	.L33
 564              	.L34:
  84:src/main.c    ****       spi_transmit(hr_values, confidence);
 565              		.loc 1 84 7 view .LVU170
 566 003a 3220     		movs	r0, #50
 567 003c FFF7FEFF 		bl	_us_delay
 568              	.LVL65:
  85:src/main.c    ****       _us_delay(50);
 569              		.loc 1 85 7 view .LVU171
 570 0040 D5F82006 		ldr	r0, [r5, #1568]	@ float
 571 0044 B5F81E46 		ldrh	r4, [r5, #1566]
 572 0048 FFF7FEFF 		bl	__aeabi_f2uiz
 573              	.LVL66:
 574 004c 24B2     		sxth	r4, r4
 575 004e 2146     		mov	r1, r4
 576 0050 FFF7FEFF 		bl	spi_transmit
 577              	.LVL67:
  86:src/main.c    ****       }
 578              		.loc 1 86 7 view .LVU172
 579 0054 3220     		movs	r0, #50
 580 0056 FFF7FEFF 		bl	_us_delay
 581              	.LVL68:
 582 005a E5E7     		b	.L33
 583              	.L37:
 584              		.align	2
 585              	.L36:
 586 005c 04040000 		.word	.LANCHOR0+1028
 587 0060 00000000 		.word	ACC_COMP
 588 0064 00000000 		.word	.LANCHOR0
 589              		.cfi_endproc
 590              	.LFE121:
 591              		.size	main, .-main
 592              		.global	Ifft_inst
 593              		.global	fft_inst
 594              		.global	sampleMean
 595              		.global	hr_values
 596              		.global	confidence
 597              		.global	noisefloor
 598              		.global	mean_value
 599              		.global	maxIndex
 600              		.global	maxVal
 601              		.global	input
 602              		.global	pSPO2_RED
 603              		.global	pSPO2_IR
 604              		.global	pPPG_Sample
 605              		.global	__errno
 606              		.global	hamming
 607              		.data
 608              		.align	2
 609              		.set	.LANCHOR1,. + 0
ARM GAS  /tmp/ccAKwby4.s 			page 17


 610              		.type	hamming, %object
 611              		.size	hamming, 512
 612              	hamming:
 613 0000 3D0A     		.short	2621
 614 0002 420A     		.short	2626
 615 0004 500A     		.short	2640
 616 0006 670A     		.short	2663
 617 0008 870A     		.short	2695
 618 000a B00A     		.short	2736
 619 000c E20A     		.short	2786
 620 000e 1D0B     		.short	2845
 621 0010 610B     		.short	2913
 622 0012 AF0B     		.short	2991
 623 0014 050C     		.short	3077
 624 0016 640C     		.short	3172
 625 0018 CC0C     		.short	3276
 626 001a 3C0D     		.short	3388
 627 001c B50D     		.short	3509
 628 001e 370E     		.short	3639
 629 0020 C20E     		.short	3778
 630 0022 550F     		.short	3925
 631 0024 F00F     		.short	4080
 632 0026 9310     		.short	4243
 633 0028 3F11     		.short	4415
 634 002a F311     		.short	4595
 635 002c AE12     		.short	4782
 636 002e 7213     		.short	4978
 637 0030 3D14     		.short	5181
 638 0032 1015     		.short	5392
 639 0034 EA15     		.short	5610
 640 0036 CC16     		.short	5836
 641 0038 B517     		.short	6069
 642 003a A518     		.short	6309
 643 003c 9B19     		.short	6555
 644 003e 991A     		.short	6809
 645 0040 9D1B     		.short	7069
 646 0042 A81C     		.short	7336
 647 0044 B91D     		.short	7609
 648 0046 D01E     		.short	7888
 649 0048 ED1F     		.short	8173
 650 004a 1021     		.short	8464
 651 004c 3822     		.short	8760
 652 004e 6623     		.short	9062
 653 0050 9924     		.short	9369
 654 0052 D125     		.short	9681
 655 0054 0E27     		.short	9998
 656 0056 4F28     		.short	10319
 657 0058 9629     		.short	10646
 658 005a E02A     		.short	10976
 659 005c 2E2C     		.short	11310
 660 005e 812D     		.short	11649
 661 0060 D72E     		.short	11991
 662 0062 3030     		.short	12336
 663 0064 8D31     		.short	12685
 664 0066 ED32     		.short	13037
 665 0068 4F34     		.short	13391
 666 006a B535     		.short	13749
ARM GAS  /tmp/ccAKwby4.s 			page 18


 667 006c 1C37     		.short	14108
 668 006e 8638     		.short	14470
 669 0070 F239     		.short	14834
 670 0072 5F3B     		.short	15199
 671 0074 CE3C     		.short	15566
 672 0076 3F3E     		.short	15935
 673 0078 B03F     		.short	16304
 674 007a 2241     		.short	16674
 675 007c 9542     		.short	17045
 676 007e 0844     		.short	17416
 677 0080 7C45     		.short	17788
 678 0082 EF46     		.short	18159
 679 0084 6248     		.short	18530
 680 0086 D449     		.short	18900
 681 0088 464B     		.short	19270
 682 008a B74C     		.short	19639
 683 008c 274E     		.short	20007
 684 008e 954F     		.short	20373
 685 0090 0251     		.short	20738
 686 0092 6D52     		.short	21101
 687 0094 D553     		.short	21461
 688 0096 3C55     		.short	21820
 689 0098 A056     		.short	22176
 690 009a 0158     		.short	22529
 691 009c 5F59     		.short	22879
 692 009e BA5A     		.short	23226
 693 00a0 125C     		.short	23570
 694 00a2 665D     		.short	23910
 695 00a4 B75E     		.short	24247
 696 00a6 0360     		.short	24579
 697 00a8 4B61     		.short	24907
 698 00aa 8F62     		.short	25231
 699 00ac CF63     		.short	25551
 700 00ae 0965     		.short	25865
 701 00b0 3F66     		.short	26175
 702 00b2 6F67     		.short	26479
 703 00b4 9A68     		.short	26778
 704 00b6 C069     		.short	27072
 705 00b8 E06A     		.short	27360
 706 00ba FA6B     		.short	27642
 707 00bc 0E6D     		.short	27918
 708 00be 1C6E     		.short	28188
 709 00c0 236F     		.short	28451
 710 00c2 2470     		.short	28708
 711 00c4 1E71     		.short	28958
 712 00c6 1272     		.short	29202
 713 00c8 FE72     		.short	29438
 714 00ca E373     		.short	29667
 715 00cc C174     		.short	29889
 716 00ce 9875     		.short	30104
 717 00d0 6776     		.short	30311
 718 00d2 2E77     		.short	30510
 719 00d4 EE77     		.short	30702
 720 00d6 A678     		.short	30886
 721 00d8 5579     		.short	31061
 722 00da FD79     		.short	31229
 723 00dc 9C7A     		.short	31388
ARM GAS  /tmp/ccAKwby4.s 			page 19


 724 00de 337B     		.short	31539
 725 00e0 C27B     		.short	31682
 726 00e2 487C     		.short	31816
 727 00e4 C67C     		.short	31942
 728 00e6 3B7D     		.short	32059
 729 00e8 A77D     		.short	32167
 730 00ea 0A7E     		.short	32266
 731 00ec 657E     		.short	32357
 732 00ee B77E     		.short	32439
 733 00f0 FF7E     		.short	32511
 734 00f2 3F7F     		.short	32575
 735 00f4 767F     		.short	32630
 736 00f6 A37F     		.short	32675
 737 00f8 C87F     		.short	32712
 738 00fa E37F     		.short	32739
 739 00fc F67F     		.short	32758
 740 00fe FF7F     		.short	32767
 741 0100 FF7F     		.short	32767
 742 0102 F67F     		.short	32758
 743 0104 E37F     		.short	32739
 744 0106 C87F     		.short	32712
 745 0108 A37F     		.short	32675
 746 010a 767F     		.short	32630
 747 010c 3F7F     		.short	32575
 748 010e FF7E     		.short	32511
 749 0110 B77E     		.short	32439
 750 0112 657E     		.short	32357
 751 0114 0A7E     		.short	32266
 752 0116 A77D     		.short	32167
 753 0118 3B7D     		.short	32059
 754 011a C67C     		.short	31942
 755 011c 487C     		.short	31816
 756 011e C27B     		.short	31682
 757 0120 337B     		.short	31539
 758 0122 9C7A     		.short	31388
 759 0124 FD79     		.short	31229
 760 0126 5579     		.short	31061
 761 0128 A678     		.short	30886
 762 012a EE77     		.short	30702
 763 012c 2E77     		.short	30510
 764 012e 6776     		.short	30311
 765 0130 9875     		.short	30104
 766 0132 C174     		.short	29889
 767 0134 E373     		.short	29667
 768 0136 FE72     		.short	29438
 769 0138 1272     		.short	29202
 770 013a 1E71     		.short	28958
 771 013c 2470     		.short	28708
 772 013e 236F     		.short	28451
 773 0140 1C6E     		.short	28188
 774 0142 0E6D     		.short	27918
 775 0144 FA6B     		.short	27642
 776 0146 E06A     		.short	27360
 777 0148 C069     		.short	27072
 778 014a 9A68     		.short	26778
 779 014c 6F67     		.short	26479
 780 014e 3F66     		.short	26175
ARM GAS  /tmp/ccAKwby4.s 			page 20


 781 0150 0965     		.short	25865
 782 0152 CF63     		.short	25551
 783 0154 8F62     		.short	25231
 784 0156 4B61     		.short	24907
 785 0158 0360     		.short	24579
 786 015a B75E     		.short	24247
 787 015c 665D     		.short	23910
 788 015e 125C     		.short	23570
 789 0160 BA5A     		.short	23226
 790 0162 5F59     		.short	22879
 791 0164 0158     		.short	22529
 792 0166 A056     		.short	22176
 793 0168 3C55     		.short	21820
 794 016a D553     		.short	21461
 795 016c 6D52     		.short	21101
 796 016e 0251     		.short	20738
 797 0170 954F     		.short	20373
 798 0172 274E     		.short	20007
 799 0174 B74C     		.short	19639
 800 0176 464B     		.short	19270
 801 0178 D449     		.short	18900
 802 017a 6248     		.short	18530
 803 017c EF46     		.short	18159
 804 017e 7C45     		.short	17788
 805 0180 0844     		.short	17416
 806 0182 9542     		.short	17045
 807 0184 2241     		.short	16674
 808 0186 B03F     		.short	16304
 809 0188 3F3E     		.short	15935
 810 018a CE3C     		.short	15566
 811 018c 5F3B     		.short	15199
 812 018e F239     		.short	14834
 813 0190 8638     		.short	14470
 814 0192 1C37     		.short	14108
 815 0194 B535     		.short	13749
 816 0196 4F34     		.short	13391
 817 0198 ED32     		.short	13037
 818 019a 8D31     		.short	12685
 819 019c 3030     		.short	12336
 820 019e D72E     		.short	11991
 821 01a0 812D     		.short	11649
 822 01a2 2E2C     		.short	11310
 823 01a4 E02A     		.short	10976
 824 01a6 9629     		.short	10646
 825 01a8 4F28     		.short	10319
 826 01aa 0E27     		.short	9998
 827 01ac D125     		.short	9681
 828 01ae 9924     		.short	9369
 829 01b0 6623     		.short	9062
 830 01b2 3822     		.short	8760
 831 01b4 1021     		.short	8464
 832 01b6 ED1F     		.short	8173
 833 01b8 D01E     		.short	7888
 834 01ba B91D     		.short	7609
 835 01bc A81C     		.short	7336
 836 01be 9D1B     		.short	7069
 837 01c0 991A     		.short	6809
ARM GAS  /tmp/ccAKwby4.s 			page 21


 838 01c2 9B19     		.short	6555
 839 01c4 A518     		.short	6309
 840 01c6 B517     		.short	6069
 841 01c8 CC16     		.short	5836
 842 01ca EA15     		.short	5610
 843 01cc 1015     		.short	5392
 844 01ce 3D14     		.short	5181
 845 01d0 7213     		.short	4978
 846 01d2 AE12     		.short	4782
 847 01d4 F311     		.short	4595
 848 01d6 3F11     		.short	4415
 849 01d8 9310     		.short	4243
 850 01da F00F     		.short	4080
 851 01dc 550F     		.short	3925
 852 01de C20E     		.short	3778
 853 01e0 370E     		.short	3639
 854 01e2 B50D     		.short	3509
 855 01e4 3C0D     		.short	3388
 856 01e6 CC0C     		.short	3276
 857 01e8 640C     		.short	3172
 858 01ea 050C     		.short	3077
 859 01ec AF0B     		.short	2991
 860 01ee 610B     		.short	2913
 861 01f0 1D0B     		.short	2845
 862 01f2 E20A     		.short	2786
 863 01f4 B00A     		.short	2736
 864 01f6 870A     		.short	2695
 865 01f8 670A     		.short	2663
 866 01fa 500A     		.short	2640
 867 01fc 420A     		.short	2626
 868 01fe 3D0A     		.short	2621
 869              		.type	pSPO2_RED, %object
 870              		.size	pSPO2_RED, 4
 871              	pSPO2_RED:
 872 0200 04000000 		.word	adc_buffer+4
 873              		.type	pSPO2_IR, %object
 874              		.size	pSPO2_IR, 4
 875              	pSPO2_IR:
 876 0204 02000000 		.word	adc_buffer+2
 877              		.type	pPPG_Sample, %object
 878              		.size	pPPG_Sample, 4
 879              	pPPG_Sample:
 880 0208 00000000 		.word	adc_buffer
 881              		.bss
 882              		.align	2
 883              		.set	.LANCHOR0,. + 0
 884              		.type	input, %object
 885              		.size	input, 1024
 886              	input:
 887 0000 00000000 		.space	1024
 887      00000000 
 887      00000000 
 887      00000000 
 887      00000000 
 888              		.type	sampleMean, %object
 889              		.size	sampleMean, 2
 890              	sampleMean:
ARM GAS  /tmp/ccAKwby4.s 			page 22


 891 0400 0000     		.space	2
 892 0402 0000     		.space	2
 893              		.type	fft_inst, %object
 894              		.size	fft_inst, 16
 895              	fft_inst:
 896 0404 00000000 		.space	16
 896      00000000 
 896      00000000 
 896      00000000 
 897              		.type	mag, %object
 898              		.size	mag, 512
 899              	mag:
 900 0414 00000000 		.space	512
 900      00000000 
 900      00000000 
 900      00000000 
 900      00000000 
 901              		.type	noisefloor, %object
 902              		.size	noisefloor, 2
 903              	noisefloor:
 904 0614 0000     		.space	2
 905 0616 0000     		.space	2
 906              		.type	maxIndex, %object
 907              		.size	maxIndex, 4
 908              	maxIndex:
 909 0618 00000000 		.space	4
 910              		.type	maxVal, %object
 911              		.size	maxVal, 2
 912              	maxVal:
 913 061c 0000     		.space	2
 914              		.type	confidence, %object
 915              		.size	confidence, 2
 916              	confidence:
 917 061e 0000     		.space	2
 918              		.type	hr_values, %object
 919              		.size	hr_values, 4
 920              	hr_values:
 921 0620 00000000 		.space	4
 922              		.type	Ifft_inst, %object
 923              		.size	Ifft_inst, 16
 924              	Ifft_inst:
 925 0624 00000000 		.space	16
 925      00000000 
 925      00000000 
 925      00000000 
 926              		.type	mean_value, %object
 927              		.size	mean_value, 4
 928              	mean_value:
 929 0634 00000000 		.space	4
 930              		.type	__errno, %object
 931              		.size	__errno, 4
 932              	__errno:
 933 0638 00000000 		.space	4
 934              		.text
 935              	.Letext0:
 936              		.file 2 "/opt/arm-none-eabi/arm-none-eabi/include/machine/_default_types.h"
 937              		.file 3 "/opt/arm-none-eabi/arm-none-eabi/include/sys/_stdint.h"
ARM GAS  /tmp/ccAKwby4.s 			page 23


 938              		.file 4 "/opt/arm-none-eabi/lib/gcc/arm-none-eabi/13.3.1/include/stddef.h"
 939              		.file 5 "dsp_lib/arm_math.h"
 940              		.file 6 "src/drivers/adc.h"
 941              		.file 7 "src/hamming.h"
 942              		.file 8 "/opt/arm-none-eabi/arm-none-eabi/include/math.h"
 943              		.file 9 "/opt/arm-none-eabi/arm-none-eabi/include/string.h"
 944              		.file 10 "src/drivers/spi.h"
 945              		.file 11 "src/drivers/delay.h"
 946              		.file 12 "src/drivers/ledconf.h"
 947              		.file 13 "src/drivers/HSE_CLK.h"
 948              		.file 14 "<built-in>"
 949              		.section	.debug_info,"",%progbits
 950              	.Ldebug_info0:
 951 0000 F2080000 		.4byte	0x8f2
 952 0004 0500     		.2byte	0x5
 953 0006 01       		.byte	0x1
 954 0007 04       		.byte	0x4
 955 0008 00000000 		.4byte	.Ldebug_abbrev0
 956 000c 1A       		.uleb128 0x1a
 957 000d 1F040000 		.4byte	.LASF93
 958 0011 1D       		.byte	0x1d
 959 0012 E0040000 		.4byte	.LASF94
 960 0016 3D010000 		.4byte	.LASF95
 961 001a 48000000 		.4byte	.LLRL16
 962 001e 00000000 		.4byte	0
 963 0022 00000000 		.4byte	.Ldebug_line0
 964 0026 06       		.uleb128 0x6
 965 0027 04       		.byte	0x4
 966 0028 04       		.byte	0x4
 967 0029 68010000 		.4byte	.LASF0
 968 002d 06       		.uleb128 0x6
 969 002e 04       		.byte	0x4
 970 002f 07       		.byte	0x7
 971 0030 01030000 		.4byte	.LASF1
 972 0034 06       		.uleb128 0x6
 973 0035 02       		.byte	0x2
 974 0036 05       		.byte	0x5
 975 0037 47000000 		.4byte	.LASF2
 976 003b 06       		.uleb128 0x6
 977 003c 01       		.byte	0x1
 978 003d 06       		.byte	0x6
 979 003e 3F020000 		.4byte	.LASF3
 980 0042 07       		.uleb128 0x7
 981 0043 98020000 		.4byte	.LASF4
 982 0047 02       		.byte	0x2
 983 0048 29       		.byte	0x29
 984 0049 17       		.byte	0x17
 985 004a 3B000000 		.4byte	0x3b
 986 004e 07       		.uleb128 0x7
 987 004f BD010000 		.4byte	.LASF5
 988 0053 02       		.byte	0x2
 989 0054 2B       		.byte	0x2b
 990 0055 18       		.byte	0x18
 991 0056 5A000000 		.4byte	0x5a
 992 005a 06       		.uleb128 0x6
 993 005b 01       		.byte	0x1
 994 005c 08       		.byte	0x8
ARM GAS  /tmp/ccAKwby4.s 			page 24


 995 005d 11020000 		.4byte	.LASF6
 996 0061 07       		.uleb128 0x7
 997 0062 EA030000 		.4byte	.LASF7
 998 0066 02       		.byte	0x2
 999 0067 37       		.byte	0x37
 1000 0068 18       		.byte	0x18
 1001 0069 34000000 		.4byte	0x34
 1002 006d 07       		.uleb128 0x7
 1003 006e CA000000 		.4byte	.LASF8
 1004 0072 02       		.byte	0x2
 1005 0073 39       		.byte	0x39
 1006 0074 19       		.byte	0x19
 1007 0075 79000000 		.4byte	0x79
 1008 0079 06       		.uleb128 0x6
 1009 007a 02       		.byte	0x2
 1010 007b 07       		.byte	0x7
 1011 007c D2020000 		.4byte	.LASF9
 1012 0080 07       		.uleb128 0x7
 1013 0081 B9030000 		.4byte	.LASF10
 1014 0085 02       		.byte	0x2
 1015 0086 4D       		.byte	0x4d
 1016 0087 18       		.byte	0x18
 1017 0088 8C000000 		.4byte	0x8c
 1018 008c 06       		.uleb128 0x6
 1019 008d 04       		.byte	0x4
 1020 008e 05       		.byte	0x5
 1021 008f A0010000 		.4byte	.LASF11
 1022 0093 07       		.uleb128 0x7
 1023 0094 C7010000 		.4byte	.LASF12
 1024 0098 02       		.byte	0x2
 1025 0099 4F       		.byte	0x4f
 1026 009a 19       		.byte	0x19
 1027 009b 9F000000 		.4byte	0x9f
 1028 009f 06       		.uleb128 0x6
 1029 00a0 04       		.byte	0x4
 1030 00a1 07       		.byte	0x7
 1031 00a2 5C030000 		.4byte	.LASF13
 1032 00a6 06       		.uleb128 0x6
 1033 00a7 08       		.byte	0x8
 1034 00a8 05       		.byte	0x5
 1035 00a9 85010000 		.4byte	.LASF14
 1036 00ad 06       		.uleb128 0x6
 1037 00ae 08       		.byte	0x8
 1038 00af 07       		.byte	0x7
 1039 00b0 4B020000 		.4byte	.LASF15
 1040 00b4 1B       		.uleb128 0x1b
 1041 00b5 04       		.byte	0x4
 1042 00b6 05       		.byte	0x5
 1043 00b7 696E7400 		.ascii	"int\000"
 1044 00bb 07       		.uleb128 0x7
 1045 00bc 23000000 		.4byte	.LASF16
 1046 00c0 03       		.byte	0x3
 1047 00c1 14       		.byte	0x14
 1048 00c2 12       		.byte	0x12
 1049 00c3 42000000 		.4byte	0x42
 1050 00c7 07       		.uleb128 0x7
 1051 00c8 17010000 		.4byte	.LASF17
ARM GAS  /tmp/ccAKwby4.s 			page 25


 1052 00cc 03       		.byte	0x3
 1053 00cd 18       		.byte	0x18
 1054 00ce 13       		.byte	0x13
 1055 00cf 4E000000 		.4byte	0x4e
 1056 00d3 07       		.uleb128 0x7
 1057 00d4 E5020000 		.4byte	.LASF18
 1058 00d8 03       		.byte	0x3
 1059 00d9 20       		.byte	0x20
 1060 00da 13       		.byte	0x13
 1061 00db 61000000 		.4byte	0x61
 1062 00df 0F       		.uleb128 0xf
 1063 00e0 D3000000 		.4byte	0xd3
 1064 00e4 07       		.uleb128 0x7
 1065 00e5 7B020000 		.4byte	.LASF19
 1066 00e9 03       		.byte	0x3
 1067 00ea 24       		.byte	0x24
 1068 00eb 14       		.byte	0x14
 1069 00ec 6D000000 		.4byte	0x6d
 1070 00f0 07       		.uleb128 0x7
 1071 00f1 C0020000 		.4byte	.LASF20
 1072 00f5 03       		.byte	0x3
 1073 00f6 2C       		.byte	0x2c
 1074 00f7 13       		.byte	0x13
 1075 00f8 80000000 		.4byte	0x80
 1076 00fc 07       		.uleb128 0x7
 1077 00fd 6B020000 		.4byte	.LASF21
 1078 0101 03       		.byte	0x3
 1079 0102 30       		.byte	0x30
 1080 0103 14       		.byte	0x14
 1081 0104 93000000 		.4byte	0x93
 1082 0108 07       		.uleb128 0x7
 1083 0109 51000000 		.4byte	.LASF22
 1084 010d 04       		.byte	0x4
 1085 010e D6       		.byte	0xd6
 1086 010f 17       		.byte	0x17
 1087 0110 2D000000 		.4byte	0x2d
 1088 0114 06       		.uleb128 0x6
 1089 0115 08       		.byte	0x8
 1090 0116 04       		.byte	0x4
 1091 0117 D2010000 		.4byte	.LASF23
 1092 011b 1C       		.uleb128 0x1c
 1093 011c 04       		.byte	0x4
 1094 011d 06       		.uleb128 0x6
 1095 011e 01       		.byte	0x1
 1096 011f 08       		.byte	0x8
 1097 0120 B2020000 		.4byte	.LASF24
 1098 0124 06       		.uleb128 0x6
 1099 0125 08       		.byte	0x8
 1100 0126 04       		.byte	0x4
 1101 0127 85030000 		.4byte	.LASF25
 1102 012b 1D       		.uleb128 0x1d
 1103 012c 05       		.byte	0x5
 1104 012d 01       		.byte	0x1
 1105 012e 3B000000 		.4byte	0x3b
 1106 0132 05       		.byte	0x5
 1107 0133 7601     		.2byte	0x176
 1108 0135 03       		.byte	0x3
ARM GAS  /tmp/ccAKwby4.s 			page 26


 1109 0136 65010000 		.4byte	0x165
 1110 013a 1E       		.uleb128 0x1e
 1111 013b 92000000 		.4byte	.LASF26
 1112 013f 00       		.byte	0
 1113 0140 0B       		.uleb128 0xb
 1114 0141 D2030000 		.4byte	.LASF27
 1115 0145 7F       		.sleb128 -1
 1116 0146 0B       		.uleb128 0xb
 1117 0147 CA040000 		.4byte	.LASF28
 1118 014b 7E       		.sleb128 -2
 1119 014c 0B       		.uleb128 0xb
 1120 014d 6E030000 		.4byte	.LASF29
 1121 0151 7D       		.sleb128 -3
 1122 0152 0B       		.uleb128 0xb
 1123 0153 E0000000 		.4byte	.LASF30
 1124 0157 7C       		.sleb128 -4
 1125 0158 0B       		.uleb128 0xb
 1126 0159 2A000000 		.4byte	.LASF31
 1127 015d 7B       		.sleb128 -5
 1128 015e 0B       		.uleb128 0xb
 1129 015f F4030000 		.4byte	.LASF32
 1130 0163 7A       		.sleb128 -6
 1131 0164 00       		.byte	0
 1132 0165 10       		.uleb128 0x10
 1133 0166 3C000000 		.4byte	.LASF33
 1134 016a 7E01     		.2byte	0x17e
 1135 016c 05       		.byte	0x5
 1136 016d 2B010000 		.4byte	0x12b
 1137 0171 10       		.uleb128 0x10
 1138 0172 1D000000 		.4byte	.LASF34
 1139 0176 8801     		.2byte	0x188
 1140 0178 13       		.byte	0x13
 1141 0179 D3000000 		.4byte	0xd3
 1142 017d 0F       		.uleb128 0xf
 1143 017e 71010000 		.4byte	0x171
 1144 0182 10       		.uleb128 0x10
 1145 0183 B3010000 		.4byte	.LASF35
 1146 0187 9701     		.2byte	0x197
 1147 0189 11       		.byte	0x11
 1148 018a 26000000 		.4byte	0x26
 1149 018e 0F       		.uleb128 0xf
 1150 018f 82010000 		.4byte	0x182
 1151 0193 0C       		.uleb128 0xc
 1152 0194 71010000 		.4byte	0x171
 1153 0198 0C       		.uleb128 0xc
 1154 0199 E4000000 		.4byte	0xe4
 1155 019d 1F       		.uleb128 0x1f
 1156 019e 10       		.byte	0x10
 1157 019f 05       		.byte	0x5
 1158 01a0 B707     		.2byte	0x7b7
 1159 01a2 0B       		.byte	0xb
 1160 01a3 03020000 		.4byte	0x203
 1161 01a7 09       		.uleb128 0x9
 1162 01a8 74020000 		.4byte	.LASF36
 1163 01ac B907     		.2byte	0x7b9
 1164 01ae 0E       		.byte	0xe
 1165 01af E4000000 		.4byte	0xe4
ARM GAS  /tmp/ccAKwby4.s 			page 27


 1166 01b3 00       		.byte	0
 1167 01b4 09       		.uleb128 0x9
 1168 01b5 00000000 		.4byte	.LASF37
 1169 01b9 BA07     		.2byte	0x7ba
 1170 01bb 0D       		.byte	0xd
 1171 01bc C7000000 		.4byte	0xc7
 1172 01c0 02       		.byte	0x2
 1173 01c1 09       		.uleb128 0x9
 1174 01c2 C3030000 		.4byte	.LASF38
 1175 01c6 BB07     		.2byte	0x7bb
 1176 01c8 0D       		.byte	0xd
 1177 01c9 C7000000 		.4byte	0xc7
 1178 01cd 03       		.byte	0x3
 1179 01ce 09       		.uleb128 0x9
 1180 01cf 77010000 		.4byte	.LASF39
 1181 01d3 BC07     		.2byte	0x7bc
 1182 01d5 0C       		.byte	0xc
 1183 01d6 93010000 		.4byte	0x193
 1184 01da 04       		.byte	0x4
 1185 01db 09       		.uleb128 0x9
 1186 01dc 0A010000 		.4byte	.LASF40
 1187 01e0 BD07     		.2byte	0x7bd
 1188 01e2 0F       		.byte	0xf
 1189 01e3 98010000 		.4byte	0x198
 1190 01e7 08       		.byte	0x8
 1191 01e8 09       		.uleb128 0x9
 1192 01e9 A1020000 		.4byte	.LASF41
 1193 01ed BE07     		.2byte	0x7be
 1194 01ef 0E       		.byte	0xe
 1195 01f0 E4000000 		.4byte	0xe4
 1196 01f4 0C       		.byte	0xc
 1197 01f5 09       		.uleb128 0x9
 1198 01f6 77000000 		.4byte	.LASF42
 1199 01fa BF07     		.2byte	0x7bf
 1200 01fc 0E       		.byte	0xe
 1201 01fd E4000000 		.4byte	0xe4
 1202 0201 0E       		.byte	0xe
 1203 0202 00       		.byte	0
 1204 0203 10       		.uleb128 0x10
 1205 0204 25030000 		.4byte	.LASF43
 1206 0208 C007     		.2byte	0x7c0
 1207 020a 05       		.byte	0x5
 1208 020b 9D010000 		.4byte	0x19d
 1209 020f 20       		.uleb128 0x20
 1210 0210 03020000 		.4byte	0x203
 1211 0214 0C       		.uleb128 0xc
 1212 0215 03020000 		.4byte	0x203
 1213 0219 12       		.uleb128 0x12
 1214 021a DF000000 		.4byte	0xdf
 1215 021e 2A020000 		.4byte	0x22a
 1216 0222 13       		.uleb128 0x13
 1217 0223 2D000000 		.4byte	0x2d
 1218 0227 FF02     		.2byte	0x2ff
 1219 0229 00       		.byte	0
 1220 022a 0F       		.uleb128 0xf
 1221 022b 19020000 		.4byte	0x219
 1222 022f 14       		.uleb128 0x14
ARM GAS  /tmp/ccAKwby4.s 			page 28


 1223 0230 1F010000 		.4byte	.LASF44
 1224 0234 18       		.byte	0x18
 1225 0235 19       		.byte	0x19
 1226 0236 2A020000 		.4byte	0x22a
 1227 023a 14       		.uleb128 0x14
 1228 023b A3030000 		.4byte	.LASF45
 1229 023f 1A       		.byte	0x1a
 1230 0240 0D       		.byte	0xd
 1231 0241 45020000 		.4byte	0x245
 1232 0245 06       		.uleb128 0x6
 1233 0246 01       		.byte	0x1
 1234 0247 02       		.byte	0x2
 1235 0248 ED020000 		.4byte	.LASF46
 1236 024c 12       		.uleb128 0x12
 1237 024d 71010000 		.4byte	0x171
 1238 0251 5C020000 		.4byte	0x25c
 1239 0255 21       		.uleb128 0x21
 1240 0256 2D000000 		.4byte	0x2d
 1241 025a FF       		.byte	0xff
 1242 025b 00       		.byte	0
 1243 025c 04       		.uleb128 0x4
 1244 025d 17040000 		.4byte	.LASF47
 1245 0261 07       		.byte	0x7
 1246 0262 04       		.byte	0x4
 1247 0263 07       		.byte	0x7
 1248 0264 4C020000 		.4byte	0x24c
 1249 0268 05       		.uleb128 0x5
 1250 0269 03       		.byte	0x3
 1251 026a 00000000 		.4byte	hamming
 1252 026e 04       		.uleb128 0x4
 1253 026f EB040000 		.4byte	.LASF48
 1254 0273 01       		.byte	0x1
 1255 0274 22       		.byte	0x22
 1256 0275 05       		.byte	0x5
 1257 0276 B4000000 		.4byte	0xb4
 1258 027a 05       		.uleb128 0x5
 1259 027b 03       		.byte	0x3
 1260 027c 00000000 		.4byte	__errno
 1261 0280 04       		.uleb128 0x4
 1262 0281 42030000 		.4byte	.LASF49
 1263 0285 01       		.byte	0x1
 1264 0286 24       		.byte	0x24
 1265 0287 0A       		.byte	0xa
 1266 0288 92020000 		.4byte	0x292
 1267 028c 05       		.uleb128 0x5
 1268 028d 03       		.byte	0x3
 1269 028e 00000000 		.4byte	pPPG_Sample
 1270 0292 0C       		.uleb128 0xc
 1271 0293 D3000000 		.4byte	0xd3
 1272 0297 04       		.uleb128 0x4
 1273 0298 B7020000 		.4byte	.LASF50
 1274 029c 01       		.byte	0x1
 1275 029d 25       		.byte	0x25
 1276 029e 0A       		.byte	0xa
 1277 029f 92020000 		.4byte	0x292
 1278 02a3 05       		.uleb128 0x5
 1279 02a4 03       		.byte	0x3
ARM GAS  /tmp/ccAKwby4.s 			page 29


 1280 02a5 00000000 		.4byte	pSPO2_IR
 1281 02a9 04       		.uleb128 0x4
 1282 02aa A9010000 		.4byte	.LASF51
 1283 02ae 01       		.byte	0x1
 1284 02af 26       		.byte	0x26
 1285 02b0 0A       		.byte	0xa
 1286 02b1 92020000 		.4byte	0x292
 1287 02b5 05       		.uleb128 0x5
 1288 02b6 03       		.byte	0x3
 1289 02b7 00000000 		.4byte	pSPO2_RED
 1290 02bb 12       		.uleb128 0x12
 1291 02bc 71010000 		.4byte	0x171
 1292 02c0 CC020000 		.4byte	0x2cc
 1293 02c4 13       		.uleb128 0x13
 1294 02c5 2D000000 		.4byte	0x2d
 1295 02c9 FF01     		.2byte	0x1ff
 1296 02cb 00       		.byte	0
 1297 02cc 04       		.uleb128 0x4
 1298 02cd 58000000 		.4byte	.LASF52
 1299 02d1 01       		.byte	0x1
 1300 02d2 27       		.byte	0x27
 1301 02d3 07       		.byte	0x7
 1302 02d4 BB020000 		.4byte	0x2bb
 1303 02d8 05       		.uleb128 0x5
 1304 02d9 03       		.byte	0x3
 1305 02da 00000000 		.4byte	input
 1306 02de 22       		.uleb128 0x22
 1307 02df 6D616700 		.ascii	"mag\000"
 1308 02e3 01       		.byte	0x1
 1309 02e4 29       		.byte	0x29
 1310 02e5 0E       		.byte	0xe
 1311 02e6 4C020000 		.4byte	0x24c
 1312 02ea 05       		.uleb128 0x5
 1313 02eb 03       		.byte	0x3
 1314 02ec 14040000 		.4byte	mag
 1315 02f0 04       		.uleb128 0x4
 1316 02f1 16000000 		.4byte	.LASF53
 1317 02f5 01       		.byte	0x1
 1318 02f6 2C       		.byte	0x2c
 1319 02f7 07       		.byte	0x7
 1320 02f8 71010000 		.4byte	0x171
 1321 02fc 05       		.uleb128 0x5
 1322 02fd 03       		.byte	0x3
 1323 02fe 00000000 		.4byte	maxVal
 1324 0302 04       		.uleb128 0x4
 1325 0303 B3000000 		.4byte	.LASF54
 1326 0307 01       		.byte	0x1
 1327 0308 2D       		.byte	0x2d
 1328 0309 0A       		.byte	0xa
 1329 030a FC000000 		.4byte	0xfc
 1330 030e 05       		.uleb128 0x5
 1331 030f 03       		.byte	0x3
 1332 0310 00000000 		.4byte	maxIndex
 1333 0314 04       		.uleb128 0x4
 1334 0315 A8000000 		.4byte	.LASF55
 1335 0319 01       		.byte	0x1
 1336 031a 2E       		.byte	0x2e
ARM GAS  /tmp/ccAKwby4.s 			page 30


 1337 031b 0A       		.byte	0xa
 1338 031c FC000000 		.4byte	0xfc
 1339 0320 05       		.uleb128 0x5
 1340 0321 03       		.byte	0x3
 1341 0322 00000000 		.4byte	mean_value
 1342 0326 04       		.uleb128 0x4
 1343 0327 D5000000 		.4byte	.LASF56
 1344 032b 01       		.byte	0x1
 1345 032c 2F       		.byte	0x2f
 1346 032d 07       		.byte	0x7
 1347 032e 71010000 		.4byte	0x171
 1348 0332 05       		.uleb128 0x5
 1349 0333 03       		.byte	0x3
 1350 0334 00000000 		.4byte	noisefloor
 1351 0338 04       		.uleb128 0x4
 1352 0339 8B040000 		.4byte	.LASF57
 1353 033d 01       		.byte	0x1
 1354 033e 30       		.byte	0x30
 1355 033f 10       		.byte	0x10
 1356 0340 7D010000 		.4byte	0x17d
 1357 0344 05       		.uleb128 0x5
 1358 0345 03       		.byte	0x3
 1359 0346 00000000 		.4byte	confidence
 1360 034a 04       		.uleb128 0x4
 1361 034b 8E020000 		.4byte	.LASF58
 1362 034f 01       		.byte	0x1
 1363 0350 31       		.byte	0x31
 1364 0351 14       		.byte	0x14
 1365 0352 8E010000 		.4byte	0x18e
 1366 0356 05       		.uleb128 0x5
 1367 0357 03       		.byte	0x3
 1368 0358 00000000 		.4byte	hr_values
 1369 035c 04       		.uleb128 0x4
 1370 035d AA040000 		.4byte	.LASF59
 1371 0361 01       		.byte	0x1
 1372 0362 32       		.byte	0x32
 1373 0363 07       		.byte	0x7
 1374 0364 71010000 		.4byte	0x171
 1375 0368 05       		.uleb128 0x5
 1376 0369 03       		.byte	0x3
 1377 036a 00000000 		.4byte	sampleMean
 1378 036e 04       		.uleb128 0x4
 1379 036f 6E010000 		.4byte	.LASF60
 1380 0373 01       		.byte	0x1
 1381 0374 35       		.byte	0x35
 1382 0375 1E       		.byte	0x1e
 1383 0376 03020000 		.4byte	0x203
 1384 037a 05       		.uleb128 0x5
 1385 037b 03       		.byte	0x3
 1386 037c 00000000 		.4byte	fft_inst
 1387 0380 04       		.uleb128 0x4
 1388 0381 99030000 		.4byte	.LASF61
 1389 0385 01       		.byte	0x1
 1390 0386 36       		.byte	0x36
 1391 0387 1E       		.byte	0x1e
 1392 0388 03020000 		.4byte	0x203
 1393 038c 05       		.uleb128 0x5
ARM GAS  /tmp/ccAKwby4.s 			page 31


 1394 038d 03       		.byte	0x3
 1395 038e 00000000 		.4byte	Ifft_inst
 1396 0392 15       		.uleb128 0x15
 1397 0393 0E030000 		.4byte	.LASF62
 1398 0397 08       		.byte	0x8
 1399 0398 8801     		.2byte	0x188
 1400 039a 26000000 		.4byte	0x26
 1401 039e A8030000 		.4byte	0x3a8
 1402 03a2 02       		.uleb128 0x2
 1403 03a3 26000000 		.4byte	0x26
 1404 03a7 00       		.byte	0
 1405 03a8 0E       		.uleb128 0xe
 1406 03a9 33020000 		.4byte	.LASF64
 1407 03ad 6D19     		.2byte	0x196d
 1408 03af C8030000 		.4byte	0x3c8
 1409 03b3 02       		.uleb128 0x2
 1410 03b4 93010000 		.4byte	0x193
 1411 03b8 02       		.uleb128 0x2
 1412 03b9 FC000000 		.4byte	0xfc
 1413 03bd 02       		.uleb128 0x2
 1414 03be 93010000 		.4byte	0x193
 1415 03c2 02       		.uleb128 0x2
 1416 03c3 C8030000 		.4byte	0x3c8
 1417 03c7 00       		.byte	0
 1418 03c8 0C       		.uleb128 0xc
 1419 03c9 FC000000 		.4byte	0xfc
 1420 03cd 23       		.uleb128 0x23
 1421 03ce 99010000 		.4byte	.LASF63
 1422 03d2 09       		.byte	0x9
 1423 03d3 21       		.byte	0x21
 1424 03d4 09       		.byte	0x9
 1425 03d5 1B010000 		.4byte	0x11b
 1426 03d9 ED030000 		.4byte	0x3ed
 1427 03dd 02       		.uleb128 0x2
 1428 03de 1B010000 		.4byte	0x11b
 1429 03e2 02       		.uleb128 0x2
 1430 03e3 B4000000 		.4byte	0xb4
 1431 03e7 02       		.uleb128 0x2
 1432 03e8 08010000 		.4byte	0x108
 1433 03ec 00       		.byte	0
 1434 03ed 0E       		.uleb128 0xe
 1435 03ee 13030000 		.4byte	.LASF65
 1436 03f2 C018     		.2byte	0x18c0
 1437 03f4 08040000 		.4byte	0x408
 1438 03f8 02       		.uleb128 0x2
 1439 03f9 93010000 		.4byte	0x193
 1440 03fd 02       		.uleb128 0x2
 1441 03fe 93010000 		.4byte	0x193
 1442 0402 02       		.uleb128 0x2
 1443 0403 FC000000 		.4byte	0xfc
 1444 0407 00       		.byte	0
 1445 0408 0E       		.uleb128 0xe
 1446 0409 96040000 		.4byte	.LASF66
 1447 040d CA07     		.2byte	0x7ca
 1448 040f 1E040000 		.4byte	0x41e
 1449 0413 02       		.uleb128 0x2
 1450 0414 1E040000 		.4byte	0x41e
ARM GAS  /tmp/ccAKwby4.s 			page 32


 1451 0418 02       		.uleb128 0x2
 1452 0419 93010000 		.4byte	0x193
 1453 041d 00       		.byte	0
 1454 041e 0C       		.uleb128 0xc
 1455 041f 0F020000 		.4byte	0x20f
 1456 0423 0E       		.uleb128 0xe
 1457 0424 F3020000 		.4byte	.LASF67
 1458 0428 800A     		.2byte	0xa80
 1459 042a 43040000 		.4byte	0x443
 1460 042e 02       		.uleb128 0x2
 1461 042f 93010000 		.4byte	0x193
 1462 0433 02       		.uleb128 0x2
 1463 0434 BB000000 		.4byte	0xbb
 1464 0438 02       		.uleb128 0x2
 1465 0439 93010000 		.4byte	0x193
 1466 043d 02       		.uleb128 0x2
 1467 043e FC000000 		.4byte	0xfc
 1468 0442 00       		.byte	0
 1469 0443 0E       		.uleb128 0xe
 1470 0444 8C030000 		.4byte	.LASF68
 1471 0448 1818     		.2byte	0x1818
 1472 044a 5E040000 		.4byte	0x45e
 1473 044e 02       		.uleb128 0x2
 1474 044f 93010000 		.4byte	0x193
 1475 0453 02       		.uleb128 0x2
 1476 0454 FC000000 		.4byte	0xfc
 1477 0458 02       		.uleb128 0x2
 1478 0459 93010000 		.4byte	0x193
 1479 045d 00       		.byte	0
 1480 045e 16       		.uleb128 0x16
 1481 045f 30010000 		.4byte	.LASF69
 1482 0463 0A       		.byte	0xa
 1483 0464 1A       		.byte	0x1a
 1484 0465 74040000 		.4byte	0x474
 1485 0469 02       		.uleb128 0x2
 1486 046a FC000000 		.4byte	0xfc
 1487 046e 02       		.uleb128 0x2
 1488 046f FC000000 		.4byte	0xfc
 1489 0473 00       		.byte	0
 1490 0474 16       		.uleb128 0x16
 1491 0475 84020000 		.4byte	.LASF70
 1492 0479 0B       		.byte	0xb
 1493 047a 15       		.byte	0x15
 1494 047b 85040000 		.4byte	0x485
 1495 047f 02       		.uleb128 0x2
 1496 0480 FC000000 		.4byte	0xfc
 1497 0484 00       		.byte	0
 1498 0485 0D       		.uleb128 0xd
 1499 0486 BC000000 		.4byte	.LASF72
 1500 048a 06       		.byte	0x6
 1501 048b 1D       		.byte	0x1d
 1502 048c 15       		.uleb128 0x15
 1503 048d 5E000000 		.4byte	.LASF71
 1504 0491 05       		.byte	0x5
 1505 0492 C307     		.2byte	0x7c3
 1506 0494 65010000 		.4byte	0x165
 1507 0498 B1040000 		.4byte	0x4b1
ARM GAS  /tmp/ccAKwby4.s 			page 33


 1508 049c 02       		.uleb128 0x2
 1509 049d 14020000 		.4byte	0x214
 1510 04a1 02       		.uleb128 0x2
 1511 04a2 E4000000 		.4byte	0xe4
 1512 04a6 02       		.uleb128 0x2
 1513 04a7 C7000000 		.4byte	0xc7
 1514 04ab 02       		.uleb128 0x2
 1515 04ac C7000000 		.4byte	0xc7
 1516 04b0 00       		.byte	0
 1517 04b1 0D       		.uleb128 0xd
 1518 04b2 F0000000 		.4byte	.LASF73
 1519 04b6 0C       		.byte	0xc
 1520 04b7 1E       		.byte	0x1e
 1521 04b8 0D       		.uleb128 0xd
 1522 04b9 4E030000 		.4byte	.LASF74
 1523 04bd 06       		.byte	0x6
 1524 04be 1B       		.byte	0x1b
 1525 04bf 0D       		.uleb128 0xd
 1526 04c0 C8020000 		.4byte	.LASF75
 1527 04c4 0B       		.byte	0xb
 1528 04c5 14       		.byte	0x14
 1529 04c6 0D       		.uleb128 0xd
 1530 04c7 62020000 		.4byte	.LASF76
 1531 04cb 0A       		.byte	0xa
 1532 04cc 19       		.byte	0x19
 1533 04cd 0D       		.uleb128 0xd
 1534 04ce 26020000 		.4byte	.LASF77
 1535 04d2 0D       		.byte	0xd
 1536 04d3 13       		.byte	0x13
 1537 04d4 24       		.uleb128 0x24
 1538 04d5 DE010000 		.4byte	.LASF96
 1539 04d9 01       		.byte	0x1
 1540 04da 5C       		.byte	0x5c
 1541 04db 06       		.byte	0x6
 1542 04dc 00000000 		.4byte	.LFB122
 1543 04e0 24020000 		.4byte	.LFE122-.LFB122
 1544 04e4 01       		.uleb128 0x1
 1545 04e5 9C       		.byte	0x9c
 1546 04e6 E8070000 		.4byte	0x7e8
 1547 04ea 08       		.uleb128 0x8
 1548 04eb 8C000000 		.4byte	.LASF78
 1549 04ef A0       		.byte	0xa0
 1550 04f0 0B       		.byte	0xb
 1551 04f1 82010000 		.4byte	0x182
 1552 04f5 12000000 		.4byte	.LLST0
 1553 04f9 0C000000 		.4byte	.LVUS0
 1554 04fd 08       		.uleb128 0x8
 1555 04fe AC030000 		.4byte	.LASF79
 1556 0502 A0       		.byte	0xa0
 1557 0503 12       		.byte	0x12
 1558 0504 82010000 		.4byte	0x182
 1559 0508 8A000000 		.4byte	.LLST1
 1560 050c 84000000 		.4byte	.LVUS1
 1561 0510 08       		.uleb128 0x8
 1562 0511 84000000 		.4byte	.LASF80
 1563 0515 A1       		.byte	0xa1
 1564 0516 0B       		.byte	0xb
ARM GAS  /tmp/ccAKwby4.s 			page 34


 1565 0517 82010000 		.4byte	0x182
 1566 051b 31010000 		.4byte	.LLST2
 1567 051f 29010000 		.4byte	.LVUS2
 1568 0523 08       		.uleb128 0x8
 1569 0524 2A010000 		.4byte	.LASF81
 1570 0528 A3       		.byte	0xa3
 1571 0529 0B       		.byte	0xb
 1572 052a 82010000 		.4byte	0x182
 1573 052e 63010000 		.4byte	.LLST3
 1574 0532 5B010000 		.4byte	.LVUS3
 1575 0536 08       		.uleb128 0x8
 1576 0537 C2040000 		.4byte	.LASF82
 1577 053b A5       		.byte	0xa5
 1578 053c 0B       		.byte	0xb
 1579 053d 82010000 		.4byte	0x182
 1580 0541 93010000 		.4byte	.LLST4
 1581 0545 8D010000 		.4byte	.LVUS4
 1582 0549 17       		.uleb128 0x17
 1583 054a 0C000000 		.4byte	.LLRL5
 1584 054e 64050000 		.4byte	0x564
 1585 0552 11       		.uleb128 0x11
 1586 0553 6900     		.ascii	"i\000"
 1587 0555 5F       		.byte	0x5f
 1588 0556 12       		.byte	0x12
 1589 0557 E4000000 		.4byte	0xe4
 1590 055b BC010000 		.4byte	.LLST6
 1591 055f B6010000 		.4byte	.LVUS6
 1592 0563 00       		.byte	0
 1593 0564 17       		.uleb128 0x17
 1594 0565 1B000000 		.4byte	.LLRL7
 1595 0569 C4050000 		.4byte	0x5c4
 1596 056d 11       		.uleb128 0x11
 1597 056e 6900     		.ascii	"i\000"
 1598 0570 68       		.byte	0x68
 1599 0571 12       		.byte	0x12
 1600 0572 E4000000 		.4byte	0xe4
 1601 0576 EC010000 		.4byte	.LLST8
 1602 057a E6010000 		.4byte	.LVUS8
 1603 057e 18       		.uleb128 0x18
 1604 057f 27000000 		.4byte	.LLRL9
 1605 0583 08       		.uleb128 0x8
 1606 0584 80010000 		.4byte	.LASF83
 1607 0588 6B       		.byte	0x6b
 1608 0589 0F       		.byte	0xf
 1609 058a F0000000 		.4byte	0xf0
 1610 058e 08020000 		.4byte	.LLST10
 1611 0592 04020000 		.4byte	.LVUS10
 1612 0596 18       		.uleb128 0x18
 1613 0597 39000000 		.4byte	.LLRL11
 1614 059b 08       		.uleb128 0x8
 1615 059c 93010000 		.4byte	.LASF84
 1616 05a0 6C       		.byte	0x6c
 1617 05a1 1D       		.byte	0x1d
 1618 05a2 FC000000 		.4byte	0xfc
 1619 05a6 3E020000 		.4byte	.LLST12
 1620 05aa 3C020000 		.4byte	.LVUS12
 1621 05ae 08       		.uleb128 0x8
ARM GAS  /tmp/ccAKwby4.s 			page 35


 1622 05af 1F020000 		.4byte	.LASF85
 1623 05b3 6C       		.byte	0x6c
 1624 05b4 1D       		.byte	0x1d
 1625 05b5 FC000000 		.4byte	0xfc
 1626 05b9 4B020000 		.4byte	.LLST13
 1627 05bd 47020000 		.4byte	.LVUS13
 1628 05c1 00       		.byte	0
 1629 05c2 00       		.byte	0
 1630 05c3 00       		.byte	0
 1631 05c4 19       		.uleb128 0x19
 1632 05c5 9A000000 		.4byte	.LBB14
 1633 05c9 1E000000 		.4byte	.LBE14-.LBB14
 1634 05cd E3050000 		.4byte	0x5e3
 1635 05d1 11       		.uleb128 0x11
 1636 05d2 6900     		.ascii	"i\000"
 1637 05d4 78       		.byte	0x78
 1638 05d5 12       		.byte	0x12
 1639 05d6 E4000000 		.4byte	0xe4
 1640 05da 8B020000 		.4byte	.LLST14
 1641 05de 83020000 		.4byte	.LVUS14
 1642 05e2 00       		.byte	0
 1643 05e3 19       		.uleb128 0x19
 1644 05e4 14010000 		.4byte	.LBB15
 1645 05e8 24000000 		.4byte	.LBE15-.LBB15
 1646 05ec 02060000 		.4byte	0x602
 1647 05f0 11       		.uleb128 0x11
 1648 05f1 6900     		.ascii	"i\000"
 1649 05f3 8F       		.byte	0x8f
 1650 05f4 15       		.byte	0x15
 1651 05f5 E4000000 		.4byte	0xe4
 1652 05f9 B0020000 		.4byte	.LLST15
 1653 05fd A8020000 		.4byte	.LVUS15
 1654 0601 00       		.byte	0
 1655 0602 05       		.uleb128 0x5
 1656 0603 36000000 		.4byte	.LVL4
 1657 0607 43040000 		.4byte	0x443
 1658 060b 29060000 		.4byte	0x629
 1659 060f 01       		.uleb128 0x1
 1660 0610 01       		.uleb128 0x1
 1661 0611 50       		.byte	0x50
 1662 0612 05       		.uleb128 0x5
 1663 0613 03       		.byte	0x3
 1664 0614 00000000 		.4byte	.LANCHOR0
 1665 0618 01       		.uleb128 0x1
 1666 0619 01       		.uleb128 0x1
 1667 061a 51       		.byte	0x51
 1668 061b 03       		.uleb128 0x3
 1669 061c 0A       		.byte	0xa
 1670 061d 0002     		.2byte	0x200
 1671 061f 01       		.uleb128 0x1
 1672 0620 01       		.uleb128 0x1
 1673 0621 52       		.byte	0x52
 1674 0622 05       		.uleb128 0x5
 1675 0623 03       		.byte	0x3
 1676 0624 00040000 		.4byte	.LANCHOR0+1024
 1677 0628 00       		.byte	0
 1678 0629 05       		.uleb128 0x5
ARM GAS  /tmp/ccAKwby4.s 			page 36


 1679 062a 78000000 		.4byte	.LVL12
 1680 062e 23040000 		.4byte	0x423
 1681 0632 4F060000 		.4byte	0x64f
 1682 0636 01       		.uleb128 0x1
 1683 0637 01       		.uleb128 0x1
 1684 0638 50       		.byte	0x50
 1685 0639 02       		.uleb128 0x2
 1686 063a 74       		.byte	0x74
 1687 063b 00       		.sleb128 0
 1688 063c 01       		.uleb128 0x1
 1689 063d 01       		.uleb128 0x1
 1690 063e 51       		.byte	0x51
 1691 063f 01       		.uleb128 0x1
 1692 0640 38       		.byte	0x38
 1693 0641 01       		.uleb128 0x1
 1694 0642 01       		.uleb128 0x1
 1695 0643 52       		.byte	0x52
 1696 0644 02       		.uleb128 0x2
 1697 0645 74       		.byte	0x74
 1698 0646 00       		.sleb128 0
 1699 0647 01       		.uleb128 0x1
 1700 0648 01       		.uleb128 0x1
 1701 0649 53       		.byte	0x53
 1702 064a 03       		.uleb128 0x3
 1703 064b 0A       		.byte	0xa
 1704 064c 0002     		.2byte	0x200
 1705 064e 00       		.byte	0
 1706 064f 05       		.uleb128 0x5
 1707 0650 82000000 		.4byte	.LVL13
 1708 0654 08040000 		.4byte	0x408
 1709 0658 6A060000 		.4byte	0x66a
 1710 065c 01       		.uleb128 0x1
 1711 065d 01       		.uleb128 0x1
 1712 065e 50       		.byte	0x50
 1713 065f 03       		.uleb128 0x3
 1714 0660 74       		.byte	0x74
 1715 0661 8408     		.sleb128 1028
 1716 0663 01       		.uleb128 0x1
 1717 0664 01       		.uleb128 0x1
 1718 0665 51       		.byte	0x51
 1719 0666 02       		.uleb128 0x2
 1720 0667 74       		.byte	0x74
 1721 0668 00       		.sleb128 0
 1722 0669 00       		.byte	0
 1723 066a 05       		.uleb128 0x5
 1724 066b 8E000000 		.4byte	.LVL14
 1725 066f ED030000 		.4byte	0x3ed
 1726 0673 90060000 		.4byte	0x690
 1727 0677 01       		.uleb128 0x1
 1728 0678 01       		.uleb128 0x1
 1729 0679 50       		.byte	0x50
 1730 067a 05       		.uleb128 0x5
 1731 067b 03       		.byte	0x3
 1732 067c 00000000 		.4byte	.LANCHOR0
 1733 0680 01       		.uleb128 0x1
 1734 0681 01       		.uleb128 0x1
 1735 0682 51       		.byte	0x51
ARM GAS  /tmp/ccAKwby4.s 			page 37


 1736 0683 05       		.uleb128 0x5
 1737 0684 03       		.byte	0x3
 1738 0685 14040000 		.4byte	.LANCHOR0+1044
 1739 0689 01       		.uleb128 0x1
 1740 068a 01       		.uleb128 0x1
 1741 068b 52       		.byte	0x52
 1742 068c 02       		.uleb128 0x2
 1743 068d 75       		.byte	0x75
 1744 068e 00       		.sleb128 0
 1745 068f 00       		.byte	0
 1746 0690 05       		.uleb128 0x5
 1747 0691 9A000000 		.4byte	.LVL15
 1748 0695 43040000 		.4byte	0x443
 1749 0699 B6060000 		.4byte	0x6b6
 1750 069d 01       		.uleb128 0x1
 1751 069e 01       		.uleb128 0x1
 1752 069f 50       		.byte	0x50
 1753 06a0 05       		.uleb128 0x5
 1754 06a1 03       		.byte	0x3
 1755 06a2 14040000 		.4byte	.LANCHOR0+1044
 1756 06a6 01       		.uleb128 0x1
 1757 06a7 01       		.uleb128 0x1
 1758 06a8 51       		.byte	0x51
 1759 06a9 02       		.uleb128 0x2
 1760 06aa 75       		.byte	0x75
 1761 06ab 00       		.sleb128 0
 1762 06ac 01       		.uleb128 0x1
 1763 06ad 01       		.uleb128 0x1
 1764 06ae 52       		.byte	0x52
 1765 06af 05       		.uleb128 0x5
 1766 06b0 03       		.byte	0x3
 1767 06b1 14060000 		.4byte	.LANCHOR0+1556
 1768 06b5 00       		.byte	0
 1769 06b6 05       		.uleb128 0x5
 1770 06b7 CE000000 		.4byte	.LVL20
 1771 06bb AB080000 		.4byte	0x8ab
 1772 06bf DA060000 		.4byte	0x6da
 1773 06c3 01       		.uleb128 0x1
 1774 06c4 01       		.uleb128 0x1
 1775 06c5 50       		.byte	0x50
 1776 06c6 05       		.uleb128 0x5
 1777 06c7 03       		.byte	0x3
 1778 06c8 3E040000 		.4byte	.LANCHOR0+1086
 1779 06cc 01       		.uleb128 0x1
 1780 06cd 01       		.uleb128 0x1
 1781 06ce 51       		.byte	0x51
 1782 06cf 02       		.uleb128 0x2
 1783 06d0 75       		.byte	0x75
 1784 06d1 00       		.sleb128 0
 1785 06d2 01       		.uleb128 0x1
 1786 06d3 01       		.uleb128 0x1
 1787 06d4 52       		.byte	0x52
 1788 06d5 03       		.uleb128 0x3
 1789 06d6 0A       		.byte	0xa
 1790 06d7 D601     		.2byte	0x1d6
 1791 06d9 00       		.byte	0
 1792 06da 05       		.uleb128 0x5
ARM GAS  /tmp/ccAKwby4.s 			page 38


 1793 06db DC000000 		.4byte	.LVL21
 1794 06df A8030000 		.4byte	0x3a8
 1795 06e3 09070000 		.4byte	0x709
 1796 06e7 01       		.uleb128 0x1
 1797 06e8 01       		.uleb128 0x1
 1798 06e9 50       		.byte	0x50
 1799 06ea 05       		.uleb128 0x5
 1800 06eb 03       		.byte	0x3
 1801 06ec 14040000 		.4byte	.LANCHOR0+1044
 1802 06f0 01       		.uleb128 0x1
 1803 06f1 01       		.uleb128 0x1
 1804 06f2 51       		.byte	0x51
 1805 06f3 02       		.uleb128 0x2
 1806 06f4 08       		.byte	0x8
 1807 06f5 80       		.byte	0x80
 1808 06f6 01       		.uleb128 0x1
 1809 06f7 01       		.uleb128 0x1
 1810 06f8 52       		.byte	0x52
 1811 06f9 05       		.uleb128 0x5
 1812 06fa 03       		.byte	0x3
 1813 06fb 1C060000 		.4byte	.LANCHOR0+1564
 1814 06ff 01       		.uleb128 0x1
 1815 0700 01       		.uleb128 0x1
 1816 0701 53       		.byte	0x53
 1817 0702 05       		.uleb128 0x5
 1818 0703 03       		.byte	0x3
 1819 0704 18060000 		.4byte	.LANCHOR0+1560
 1820 0708 00       		.byte	0
 1821 0709 03       		.uleb128 0x3
 1822 070a 48010000 		.4byte	.LVL26
 1823 070e B6080000 		.4byte	0x8b6
 1824 0712 03       		.uleb128 0x3
 1825 0713 5A010000 		.4byte	.LVL29
 1826 0717 B6080000 		.4byte	0x8b6
 1827 071b 03       		.uleb128 0x3
 1828 071c 6C010000 		.4byte	.LVL32
 1829 0720 B6080000 		.4byte	0x8b6
 1830 0724 05       		.uleb128 0x5
 1831 0725 74010000 		.4byte	.LVL34
 1832 0729 92030000 		.4byte	0x392
 1833 072d 39070000 		.4byte	0x739
 1834 0731 01       		.uleb128 0x1
 1835 0732 01       		.uleb128 0x1
 1836 0733 50       		.byte	0x50
 1837 0734 03       		.uleb128 0x3
 1838 0735 A5       		.byte	0xa5
 1839 0736 07       		.uleb128 0x7
 1840 0737 26       		.uleb128 0x26
 1841 0738 00       		.byte	0
 1842 0739 05       		.uleb128 0x5
 1843 073a 7C010000 		.4byte	.LVL35
 1844 073e 92030000 		.4byte	0x392
 1845 0742 4E070000 		.4byte	0x74e
 1846 0746 01       		.uleb128 0x1
 1847 0747 01       		.uleb128 0x1
 1848 0748 50       		.byte	0x50
 1849 0749 03       		.uleb128 0x3
ARM GAS  /tmp/ccAKwby4.s 			page 39


 1850 074a A5       		.byte	0xa5
 1851 074b 06       		.uleb128 0x6
 1852 074c 26       		.uleb128 0x26
 1853 074d 00       		.byte	0
 1854 074e 05       		.uleb128 0x5
 1855 074f 84010000 		.4byte	.LVL36
 1856 0753 92030000 		.4byte	0x392
 1857 0757 63070000 		.4byte	0x763
 1858 075b 01       		.uleb128 0x1
 1859 075c 01       		.uleb128 0x1
 1860 075d 50       		.byte	0x50
 1861 075e 03       		.uleb128 0x3
 1862 075f A5       		.byte	0xa5
 1863 0760 07       		.uleb128 0x7
 1864 0761 26       		.uleb128 0x26
 1865 0762 00       		.byte	0
 1866 0763 05       		.uleb128 0x5
 1867 0764 8C010000 		.4byte	.LVL38
 1868 0768 92030000 		.4byte	0x392
 1869 076c 78070000 		.4byte	0x778
 1870 0770 01       		.uleb128 0x1
 1871 0771 01       		.uleb128 0x1
 1872 0772 50       		.byte	0x50
 1873 0773 03       		.uleb128 0x3
 1874 0774 A5       		.byte	0xa5
 1875 0775 08       		.uleb128 0x8
 1876 0776 26       		.uleb128 0x26
 1877 0777 00       		.byte	0
 1878 0778 05       		.uleb128 0x5
 1879 0779 94010000 		.4byte	.LVL40
 1880 077d 92030000 		.4byte	0x392
 1881 0781 8D070000 		.4byte	0x78d
 1882 0785 01       		.uleb128 0x1
 1883 0786 01       		.uleb128 0x1
 1884 0787 50       		.byte	0x50
 1885 0788 03       		.uleb128 0x3
 1886 0789 A5       		.byte	0xa5
 1887 078a 06       		.uleb128 0x6
 1888 078b 26       		.uleb128 0x26
 1889 078c 00       		.byte	0
 1890 078d 03       		.uleb128 0x3
 1891 078e 9E010000 		.4byte	.LVL43
 1892 0792 BF080000 		.4byte	0x8bf
 1893 0796 03       		.uleb128 0x3
 1894 0797 A6010000 		.4byte	.LVL44
 1895 079b C8080000 		.4byte	0x8c8
 1896 079f 03       		.uleb128 0x3
 1897 07a0 B0010000 		.4byte	.LVL46
 1898 07a4 D1080000 		.4byte	0x8d1
 1899 07a8 03       		.uleb128 0x3
 1900 07a9 B8010000 		.4byte	.LVL47
 1901 07ad BF080000 		.4byte	0x8bf
 1902 07b1 03       		.uleb128 0x3
 1903 07b2 BE010000 		.4byte	.LVL48
 1904 07b6 D1080000 		.4byte	0x8d1
 1905 07ba 03       		.uleb128 0x3
 1906 07bb C6010000 		.4byte	.LVL49
ARM GAS  /tmp/ccAKwby4.s 			page 40


 1907 07bf DA080000 		.4byte	0x8da
 1908 07c3 03       		.uleb128 0x3
 1909 07c4 CE010000 		.4byte	.LVL50
 1910 07c8 E3080000 		.4byte	0x8e3
 1911 07cc 03       		.uleb128 0x3
 1912 07cd D6010000 		.4byte	.LVL51
 1913 07d1 D1080000 		.4byte	0x8d1
 1914 07d5 03       		.uleb128 0x3
 1915 07d6 DC010000 		.4byte	.LVL52
 1916 07da C8080000 		.4byte	0x8c8
 1917 07de 03       		.uleb128 0x3
 1918 07df E2010000 		.4byte	.LVL53
 1919 07e3 C8080000 		.4byte	0x8c8
 1920 07e7 00       		.byte	0
 1921 07e8 25       		.uleb128 0x25
 1922 07e9 A3000000 		.4byte	.LASF97
 1923 07ed 01       		.byte	0x1
 1924 07ee 3C       		.byte	0x3c
 1925 07ef 05       		.byte	0x5
 1926 07f0 B4000000 		.4byte	0xb4
 1927 07f4 00000000 		.4byte	.LFB121
 1928 07f8 68000000 		.4byte	.LFE121-.LFB121
 1929 07fc 01       		.uleb128 0x1
 1930 07fd 9C       		.byte	0x9c
 1931 07fe AB080000 		.4byte	0x8ab
 1932 0802 03       		.uleb128 0x3
 1933 0803 06000000 		.4byte	.LVL57
 1934 0807 CD040000 		.4byte	0x4cd
 1935 080b 03       		.uleb128 0x3
 1936 080c 0A000000 		.4byte	.LVL58
 1937 0810 C6040000 		.4byte	0x4c6
 1938 0814 03       		.uleb128 0x3
 1939 0815 0E000000 		.4byte	.LVL59
 1940 0819 BF040000 		.4byte	0x4bf
 1941 081d 03       		.uleb128 0x3
 1942 081e 12000000 		.4byte	.LVL60
 1943 0822 B8040000 		.4byte	0x4b8
 1944 0826 03       		.uleb128 0x3
 1945 0827 16000000 		.4byte	.LVL61
 1946 082b B1040000 		.4byte	0x4b1
 1947 082f 05       		.uleb128 0x5
 1948 0830 24000000 		.4byte	.LVL62
 1949 0834 8C040000 		.4byte	0x48c
 1950 0838 57080000 		.4byte	0x857
 1951 083c 01       		.uleb128 0x1
 1952 083d 01       		.uleb128 0x1
 1953 083e 50       		.byte	0x50
 1954 083f 05       		.uleb128 0x5
 1955 0840 03       		.byte	0x3
 1956 0841 04040000 		.4byte	.LANCHOR0+1028
 1957 0845 01       		.uleb128 0x1
 1958 0846 01       		.uleb128 0x1
 1959 0847 51       		.byte	0x51
 1960 0848 03       		.uleb128 0x3
 1961 0849 0A       		.byte	0xa
 1962 084a 0001     		.2byte	0x100
 1963 084c 01       		.uleb128 0x1
ARM GAS  /tmp/ccAKwby4.s 			page 41


 1964 084d 01       		.uleb128 0x1
 1965 084e 52       		.byte	0x52
 1966 084f 01       		.uleb128 0x1
 1967 0850 30       		.byte	0x30
 1968 0851 01       		.uleb128 0x1
 1969 0852 01       		.uleb128 0x1
 1970 0853 53       		.byte	0x53
 1971 0854 01       		.uleb128 0x1
 1972 0855 31       		.byte	0x31
 1973 0856 00       		.byte	0
 1974 0857 03       		.uleb128 0x3
 1975 0858 34000000 		.4byte	.LVL63
 1976 085c D4040000 		.4byte	0x4d4
 1977 0860 03       		.uleb128 0x3
 1978 0861 38000000 		.4byte	.LVL64
 1979 0865 85040000 		.4byte	0x485
 1980 0869 05       		.uleb128 0x5
 1981 086a 40000000 		.4byte	.LVL65
 1982 086e 74040000 		.4byte	0x474
 1983 0872 7D080000 		.4byte	0x87d
 1984 0876 01       		.uleb128 0x1
 1985 0877 01       		.uleb128 0x1
 1986 0878 50       		.byte	0x50
 1987 0879 02       		.uleb128 0x2
 1988 087a 08       		.byte	0x8
 1989 087b 32       		.byte	0x32
 1990 087c 00       		.byte	0
 1991 087d 03       		.uleb128 0x3
 1992 087e 4C000000 		.4byte	.LVL66
 1993 0882 EC080000 		.4byte	0x8ec
 1994 0886 05       		.uleb128 0x5
 1995 0887 54000000 		.4byte	.LVL67
 1996 088b 5E040000 		.4byte	0x45e
 1997 088f 9A080000 		.4byte	0x89a
 1998 0893 01       		.uleb128 0x1
 1999 0894 01       		.uleb128 0x1
 2000 0895 51       		.byte	0x51
 2001 0896 02       		.uleb128 0x2
 2002 0897 74       		.byte	0x74
 2003 0898 00       		.sleb128 0
 2004 0899 00       		.byte	0
 2005 089a 26       		.uleb128 0x26
 2006 089b 5A000000 		.4byte	.LVL68
 2007 089f 74040000 		.4byte	0x474
 2008 08a3 01       		.uleb128 0x1
 2009 08a4 01       		.uleb128 0x1
 2010 08a5 50       		.byte	0x50
 2011 08a6 02       		.uleb128 0x2
 2012 08a7 08       		.byte	0x8
 2013 08a8 32       		.byte	0x32
 2014 08a9 00       		.byte	0
 2015 08aa 00       		.byte	0
 2016 08ab 27       		.uleb128 0x27
 2017 08ac 99010000 		.4byte	.LASF63
 2018 08b0 F9000000 		.4byte	.LASF98
 2019 08b4 0E       		.byte	0xe
 2020 08b5 00       		.byte	0
ARM GAS  /tmp/ccAKwby4.s 			page 42


 2021 08b6 0A       		.uleb128 0xa
 2022 08b7 EA010000 		.4byte	.LASF86
 2023 08bb EA010000 		.4byte	.LASF86
 2024 08bf 0A       		.uleb128 0xa
 2025 08c0 5B010000 		.4byte	.LASF87
 2026 08c4 5B010000 		.4byte	.LASF87
 2027 08c8 0A       		.uleb128 0xa
 2028 08c9 09000000 		.4byte	.LASF88
 2029 08cd 09000000 		.4byte	.LASF88
 2030 08d1 0A       		.uleb128 0xa
 2031 08d2 0A040000 		.4byte	.LASF89
 2032 08d6 0A040000 		.4byte	.LASF89
 2033 08da 0A       		.uleb128 0xa
 2034 08db B5040000 		.4byte	.LASF90
 2035 08df B5040000 		.4byte	.LASF90
 2036 08e3 0A       		.uleb128 0xa
 2037 08e4 F6010000 		.4byte	.LASF91
 2038 08e8 F6010000 		.4byte	.LASF91
 2039 08ec 0A       		.uleb128 0xa
 2040 08ed 03020000 		.4byte	.LASF92
 2041 08f1 03020000 		.4byte	.LASF92
 2042 08f5 00       		.byte	0
 2043              		.section	.debug_abbrev,"",%progbits
 2044              	.Ldebug_abbrev0:
 2045 0000 01       		.uleb128 0x1
 2046 0001 49       		.uleb128 0x49
 2047 0002 00       		.byte	0
 2048 0003 02       		.uleb128 0x2
 2049 0004 18       		.uleb128 0x18
 2050 0005 7E       		.uleb128 0x7e
 2051 0006 18       		.uleb128 0x18
 2052 0007 00       		.byte	0
 2053 0008 00       		.byte	0
 2054 0009 02       		.uleb128 0x2
 2055 000a 05       		.uleb128 0x5
 2056 000b 00       		.byte	0
 2057 000c 49       		.uleb128 0x49
 2058 000d 13       		.uleb128 0x13
 2059 000e 00       		.byte	0
 2060 000f 00       		.byte	0
 2061 0010 03       		.uleb128 0x3
 2062 0011 48       		.uleb128 0x48
 2063 0012 00       		.byte	0
 2064 0013 7D       		.uleb128 0x7d
 2065 0014 01       		.uleb128 0x1
 2066 0015 7F       		.uleb128 0x7f
 2067 0016 13       		.uleb128 0x13
 2068 0017 00       		.byte	0
 2069 0018 00       		.byte	0
 2070 0019 04       		.uleb128 0x4
 2071 001a 34       		.uleb128 0x34
 2072 001b 00       		.byte	0
 2073 001c 03       		.uleb128 0x3
 2074 001d 0E       		.uleb128 0xe
 2075 001e 3A       		.uleb128 0x3a
 2076 001f 0B       		.uleb128 0xb
 2077 0020 3B       		.uleb128 0x3b
ARM GAS  /tmp/ccAKwby4.s 			page 43


 2078 0021 0B       		.uleb128 0xb
 2079 0022 39       		.uleb128 0x39
 2080 0023 0B       		.uleb128 0xb
 2081 0024 49       		.uleb128 0x49
 2082 0025 13       		.uleb128 0x13
 2083 0026 3F       		.uleb128 0x3f
 2084 0027 19       		.uleb128 0x19
 2085 0028 02       		.uleb128 0x2
 2086 0029 18       		.uleb128 0x18
 2087 002a 00       		.byte	0
 2088 002b 00       		.byte	0
 2089 002c 05       		.uleb128 0x5
 2090 002d 48       		.uleb128 0x48
 2091 002e 01       		.byte	0x1
 2092 002f 7D       		.uleb128 0x7d
 2093 0030 01       		.uleb128 0x1
 2094 0031 7F       		.uleb128 0x7f
 2095 0032 13       		.uleb128 0x13
 2096 0033 01       		.uleb128 0x1
 2097 0034 13       		.uleb128 0x13
 2098 0035 00       		.byte	0
 2099 0036 00       		.byte	0
 2100 0037 06       		.uleb128 0x6
 2101 0038 24       		.uleb128 0x24
 2102 0039 00       		.byte	0
 2103 003a 0B       		.uleb128 0xb
 2104 003b 0B       		.uleb128 0xb
 2105 003c 3E       		.uleb128 0x3e
 2106 003d 0B       		.uleb128 0xb
 2107 003e 03       		.uleb128 0x3
 2108 003f 0E       		.uleb128 0xe
 2109 0040 00       		.byte	0
 2110 0041 00       		.byte	0
 2111 0042 07       		.uleb128 0x7
 2112 0043 16       		.uleb128 0x16
 2113 0044 00       		.byte	0
 2114 0045 03       		.uleb128 0x3
 2115 0046 0E       		.uleb128 0xe
 2116 0047 3A       		.uleb128 0x3a
 2117 0048 0B       		.uleb128 0xb
 2118 0049 3B       		.uleb128 0x3b
 2119 004a 0B       		.uleb128 0xb
 2120 004b 39       		.uleb128 0x39
 2121 004c 0B       		.uleb128 0xb
 2122 004d 49       		.uleb128 0x49
 2123 004e 13       		.uleb128 0x13
 2124 004f 00       		.byte	0
 2125 0050 00       		.byte	0
 2126 0051 08       		.uleb128 0x8
 2127 0052 34       		.uleb128 0x34
 2128 0053 00       		.byte	0
 2129 0054 03       		.uleb128 0x3
 2130 0055 0E       		.uleb128 0xe
 2131 0056 3A       		.uleb128 0x3a
 2132 0057 21       		.uleb128 0x21
 2133 0058 01       		.sleb128 1
 2134 0059 3B       		.uleb128 0x3b
ARM GAS  /tmp/ccAKwby4.s 			page 44


 2135 005a 0B       		.uleb128 0xb
 2136 005b 39       		.uleb128 0x39
 2137 005c 0B       		.uleb128 0xb
 2138 005d 49       		.uleb128 0x49
 2139 005e 13       		.uleb128 0x13
 2140 005f 02       		.uleb128 0x2
 2141 0060 17       		.uleb128 0x17
 2142 0061 B742     		.uleb128 0x2137
 2143 0063 17       		.uleb128 0x17
 2144 0064 00       		.byte	0
 2145 0065 00       		.byte	0
 2146 0066 09       		.uleb128 0x9
 2147 0067 0D       		.uleb128 0xd
 2148 0068 00       		.byte	0
 2149 0069 03       		.uleb128 0x3
 2150 006a 0E       		.uleb128 0xe
 2151 006b 3A       		.uleb128 0x3a
 2152 006c 21       		.uleb128 0x21
 2153 006d 05       		.sleb128 5
 2154 006e 3B       		.uleb128 0x3b
 2155 006f 05       		.uleb128 0x5
 2156 0070 39       		.uleb128 0x39
 2157 0071 0B       		.uleb128 0xb
 2158 0072 49       		.uleb128 0x49
 2159 0073 13       		.uleb128 0x13
 2160 0074 38       		.uleb128 0x38
 2161 0075 0B       		.uleb128 0xb
 2162 0076 00       		.byte	0
 2163 0077 00       		.byte	0
 2164 0078 0A       		.uleb128 0xa
 2165 0079 2E       		.uleb128 0x2e
 2166 007a 00       		.byte	0
 2167 007b 3F       		.uleb128 0x3f
 2168 007c 19       		.uleb128 0x19
 2169 007d 3C       		.uleb128 0x3c
 2170 007e 19       		.uleb128 0x19
 2171 007f 6E       		.uleb128 0x6e
 2172 0080 0E       		.uleb128 0xe
 2173 0081 03       		.uleb128 0x3
 2174 0082 0E       		.uleb128 0xe
 2175 0083 00       		.byte	0
 2176 0084 00       		.byte	0
 2177 0085 0B       		.uleb128 0xb
 2178 0086 28       		.uleb128 0x28
 2179 0087 00       		.byte	0
 2180 0088 03       		.uleb128 0x3
 2181 0089 0E       		.uleb128 0xe
 2182 008a 1C       		.uleb128 0x1c
 2183 008b 0D       		.uleb128 0xd
 2184 008c 00       		.byte	0
 2185 008d 00       		.byte	0
 2186 008e 0C       		.uleb128 0xc
 2187 008f 0F       		.uleb128 0xf
 2188 0090 00       		.byte	0
 2189 0091 0B       		.uleb128 0xb
 2190 0092 21       		.uleb128 0x21
 2191 0093 04       		.sleb128 4
ARM GAS  /tmp/ccAKwby4.s 			page 45


 2192 0094 49       		.uleb128 0x49
 2193 0095 13       		.uleb128 0x13
 2194 0096 00       		.byte	0
 2195 0097 00       		.byte	0
 2196 0098 0D       		.uleb128 0xd
 2197 0099 2E       		.uleb128 0x2e
 2198 009a 00       		.byte	0
 2199 009b 3F       		.uleb128 0x3f
 2200 009c 19       		.uleb128 0x19
 2201 009d 03       		.uleb128 0x3
 2202 009e 0E       		.uleb128 0xe
 2203 009f 3A       		.uleb128 0x3a
 2204 00a0 0B       		.uleb128 0xb
 2205 00a1 3B       		.uleb128 0x3b
 2206 00a2 0B       		.uleb128 0xb
 2207 00a3 39       		.uleb128 0x39
 2208 00a4 21       		.uleb128 0x21
 2209 00a5 06       		.sleb128 6
 2210 00a6 27       		.uleb128 0x27
 2211 00a7 19       		.uleb128 0x19
 2212 00a8 3C       		.uleb128 0x3c
 2213 00a9 19       		.uleb128 0x19
 2214 00aa 00       		.byte	0
 2215 00ab 00       		.byte	0
 2216 00ac 0E       		.uleb128 0xe
 2217 00ad 2E       		.uleb128 0x2e
 2218 00ae 01       		.byte	0x1
 2219 00af 3F       		.uleb128 0x3f
 2220 00b0 19       		.uleb128 0x19
 2221 00b1 03       		.uleb128 0x3
 2222 00b2 0E       		.uleb128 0xe
 2223 00b3 3A       		.uleb128 0x3a
 2224 00b4 21       		.uleb128 0x21
 2225 00b5 05       		.sleb128 5
 2226 00b6 3B       		.uleb128 0x3b
 2227 00b7 05       		.uleb128 0x5
 2228 00b8 39       		.uleb128 0x39
 2229 00b9 21       		.uleb128 0x21
 2230 00ba 08       		.sleb128 8
 2231 00bb 27       		.uleb128 0x27
 2232 00bc 19       		.uleb128 0x19
 2233 00bd 3C       		.uleb128 0x3c
 2234 00be 19       		.uleb128 0x19
 2235 00bf 01       		.uleb128 0x1
 2236 00c0 13       		.uleb128 0x13
 2237 00c1 00       		.byte	0
 2238 00c2 00       		.byte	0
 2239 00c3 0F       		.uleb128 0xf
 2240 00c4 35       		.uleb128 0x35
 2241 00c5 00       		.byte	0
 2242 00c6 49       		.uleb128 0x49
 2243 00c7 13       		.uleb128 0x13
 2244 00c8 00       		.byte	0
 2245 00c9 00       		.byte	0
 2246 00ca 10       		.uleb128 0x10
 2247 00cb 16       		.uleb128 0x16
 2248 00cc 00       		.byte	0
ARM GAS  /tmp/ccAKwby4.s 			page 46


 2249 00cd 03       		.uleb128 0x3
 2250 00ce 0E       		.uleb128 0xe
 2251 00cf 3A       		.uleb128 0x3a
 2252 00d0 21       		.uleb128 0x21
 2253 00d1 05       		.sleb128 5
 2254 00d2 3B       		.uleb128 0x3b
 2255 00d3 05       		.uleb128 0x5
 2256 00d4 39       		.uleb128 0x39
 2257 00d5 0B       		.uleb128 0xb
 2258 00d6 49       		.uleb128 0x49
 2259 00d7 13       		.uleb128 0x13
 2260 00d8 00       		.byte	0
 2261 00d9 00       		.byte	0
 2262 00da 11       		.uleb128 0x11
 2263 00db 34       		.uleb128 0x34
 2264 00dc 00       		.byte	0
 2265 00dd 03       		.uleb128 0x3
 2266 00de 08       		.uleb128 0x8
 2267 00df 3A       		.uleb128 0x3a
 2268 00e0 21       		.uleb128 0x21
 2269 00e1 01       		.sleb128 1
 2270 00e2 3B       		.uleb128 0x3b
 2271 00e3 0B       		.uleb128 0xb
 2272 00e4 39       		.uleb128 0x39
 2273 00e5 0B       		.uleb128 0xb
 2274 00e6 49       		.uleb128 0x49
 2275 00e7 13       		.uleb128 0x13
 2276 00e8 02       		.uleb128 0x2
 2277 00e9 17       		.uleb128 0x17
 2278 00ea B742     		.uleb128 0x2137
 2279 00ec 17       		.uleb128 0x17
 2280 00ed 00       		.byte	0
 2281 00ee 00       		.byte	0
 2282 00ef 12       		.uleb128 0x12
 2283 00f0 01       		.uleb128 0x1
 2284 00f1 01       		.byte	0x1
 2285 00f2 49       		.uleb128 0x49
 2286 00f3 13       		.uleb128 0x13
 2287 00f4 01       		.uleb128 0x1
 2288 00f5 13       		.uleb128 0x13
 2289 00f6 00       		.byte	0
 2290 00f7 00       		.byte	0
 2291 00f8 13       		.uleb128 0x13
 2292 00f9 21       		.uleb128 0x21
 2293 00fa 00       		.byte	0
 2294 00fb 49       		.uleb128 0x49
 2295 00fc 13       		.uleb128 0x13
 2296 00fd 2F       		.uleb128 0x2f
 2297 00fe 05       		.uleb128 0x5
 2298 00ff 00       		.byte	0
 2299 0100 00       		.byte	0
 2300 0101 14       		.uleb128 0x14
 2301 0102 34       		.uleb128 0x34
 2302 0103 00       		.byte	0
 2303 0104 03       		.uleb128 0x3
 2304 0105 0E       		.uleb128 0xe
 2305 0106 3A       		.uleb128 0x3a
ARM GAS  /tmp/ccAKwby4.s 			page 47


 2306 0107 21       		.uleb128 0x21
 2307 0108 06       		.sleb128 6
 2308 0109 3B       		.uleb128 0x3b
 2309 010a 0B       		.uleb128 0xb
 2310 010b 39       		.uleb128 0x39
 2311 010c 0B       		.uleb128 0xb
 2312 010d 49       		.uleb128 0x49
 2313 010e 13       		.uleb128 0x13
 2314 010f 3F       		.uleb128 0x3f
 2315 0110 19       		.uleb128 0x19
 2316 0111 3C       		.uleb128 0x3c
 2317 0112 19       		.uleb128 0x19
 2318 0113 00       		.byte	0
 2319 0114 00       		.byte	0
 2320 0115 15       		.uleb128 0x15
 2321 0116 2E       		.uleb128 0x2e
 2322 0117 01       		.byte	0x1
 2323 0118 3F       		.uleb128 0x3f
 2324 0119 19       		.uleb128 0x19
 2325 011a 03       		.uleb128 0x3
 2326 011b 0E       		.uleb128 0xe
 2327 011c 3A       		.uleb128 0x3a
 2328 011d 0B       		.uleb128 0xb
 2329 011e 3B       		.uleb128 0x3b
 2330 011f 05       		.uleb128 0x5
 2331 0120 39       		.uleb128 0x39
 2332 0121 21       		.uleb128 0x21
 2333 0122 0E       		.sleb128 14
 2334 0123 27       		.uleb128 0x27
 2335 0124 19       		.uleb128 0x19
 2336 0125 49       		.uleb128 0x49
 2337 0126 13       		.uleb128 0x13
 2338 0127 3C       		.uleb128 0x3c
 2339 0128 19       		.uleb128 0x19
 2340 0129 01       		.uleb128 0x1
 2341 012a 13       		.uleb128 0x13
 2342 012b 00       		.byte	0
 2343 012c 00       		.byte	0
 2344 012d 16       		.uleb128 0x16
 2345 012e 2E       		.uleb128 0x2e
 2346 012f 01       		.byte	0x1
 2347 0130 3F       		.uleb128 0x3f
 2348 0131 19       		.uleb128 0x19
 2349 0132 03       		.uleb128 0x3
 2350 0133 0E       		.uleb128 0xe
 2351 0134 3A       		.uleb128 0x3a
 2352 0135 0B       		.uleb128 0xb
 2353 0136 3B       		.uleb128 0x3b
 2354 0137 0B       		.uleb128 0xb
 2355 0138 39       		.uleb128 0x39
 2356 0139 21       		.uleb128 0x21
 2357 013a 06       		.sleb128 6
 2358 013b 27       		.uleb128 0x27
 2359 013c 19       		.uleb128 0x19
 2360 013d 3C       		.uleb128 0x3c
 2361 013e 19       		.uleb128 0x19
 2362 013f 01       		.uleb128 0x1
ARM GAS  /tmp/ccAKwby4.s 			page 48


 2363 0140 13       		.uleb128 0x13
 2364 0141 00       		.byte	0
 2365 0142 00       		.byte	0
 2366 0143 17       		.uleb128 0x17
 2367 0144 0B       		.uleb128 0xb
 2368 0145 01       		.byte	0x1
 2369 0146 55       		.uleb128 0x55
 2370 0147 17       		.uleb128 0x17
 2371 0148 01       		.uleb128 0x1
 2372 0149 13       		.uleb128 0x13
 2373 014a 00       		.byte	0
 2374 014b 00       		.byte	0
 2375 014c 18       		.uleb128 0x18
 2376 014d 0B       		.uleb128 0xb
 2377 014e 01       		.byte	0x1
 2378 014f 55       		.uleb128 0x55
 2379 0150 17       		.uleb128 0x17
 2380 0151 00       		.byte	0
 2381 0152 00       		.byte	0
 2382 0153 19       		.uleb128 0x19
 2383 0154 0B       		.uleb128 0xb
 2384 0155 01       		.byte	0x1
 2385 0156 11       		.uleb128 0x11
 2386 0157 01       		.uleb128 0x1
 2387 0158 12       		.uleb128 0x12
 2388 0159 06       		.uleb128 0x6
 2389 015a 01       		.uleb128 0x1
 2390 015b 13       		.uleb128 0x13
 2391 015c 00       		.byte	0
 2392 015d 00       		.byte	0
 2393 015e 1A       		.uleb128 0x1a
 2394 015f 11       		.uleb128 0x11
 2395 0160 01       		.byte	0x1
 2396 0161 25       		.uleb128 0x25
 2397 0162 0E       		.uleb128 0xe
 2398 0163 13       		.uleb128 0x13
 2399 0164 0B       		.uleb128 0xb
 2400 0165 03       		.uleb128 0x3
 2401 0166 0E       		.uleb128 0xe
 2402 0167 1B       		.uleb128 0x1b
 2403 0168 0E       		.uleb128 0xe
 2404 0169 55       		.uleb128 0x55
 2405 016a 17       		.uleb128 0x17
 2406 016b 11       		.uleb128 0x11
 2407 016c 01       		.uleb128 0x1
 2408 016d 10       		.uleb128 0x10
 2409 016e 17       		.uleb128 0x17
 2410 016f 00       		.byte	0
 2411 0170 00       		.byte	0
 2412 0171 1B       		.uleb128 0x1b
 2413 0172 24       		.uleb128 0x24
 2414 0173 00       		.byte	0
 2415 0174 0B       		.uleb128 0xb
 2416 0175 0B       		.uleb128 0xb
 2417 0176 3E       		.uleb128 0x3e
 2418 0177 0B       		.uleb128 0xb
 2419 0178 03       		.uleb128 0x3
ARM GAS  /tmp/ccAKwby4.s 			page 49


 2420 0179 08       		.uleb128 0x8
 2421 017a 00       		.byte	0
 2422 017b 00       		.byte	0
 2423 017c 1C       		.uleb128 0x1c
 2424 017d 0F       		.uleb128 0xf
 2425 017e 00       		.byte	0
 2426 017f 0B       		.uleb128 0xb
 2427 0180 0B       		.uleb128 0xb
 2428 0181 00       		.byte	0
 2429 0182 00       		.byte	0
 2430 0183 1D       		.uleb128 0x1d
 2431 0184 04       		.uleb128 0x4
 2432 0185 01       		.byte	0x1
 2433 0186 3E       		.uleb128 0x3e
 2434 0187 0B       		.uleb128 0xb
 2435 0188 0B       		.uleb128 0xb
 2436 0189 0B       		.uleb128 0xb
 2437 018a 49       		.uleb128 0x49
 2438 018b 13       		.uleb128 0x13
 2439 018c 3A       		.uleb128 0x3a
 2440 018d 0B       		.uleb128 0xb
 2441 018e 3B       		.uleb128 0x3b
 2442 018f 05       		.uleb128 0x5
 2443 0190 39       		.uleb128 0x39
 2444 0191 0B       		.uleb128 0xb
 2445 0192 01       		.uleb128 0x1
 2446 0193 13       		.uleb128 0x13
 2447 0194 00       		.byte	0
 2448 0195 00       		.byte	0
 2449 0196 1E       		.uleb128 0x1e
 2450 0197 28       		.uleb128 0x28
 2451 0198 00       		.byte	0
 2452 0199 03       		.uleb128 0x3
 2453 019a 0E       		.uleb128 0xe
 2454 019b 1C       		.uleb128 0x1c
 2455 019c 0B       		.uleb128 0xb
 2456 019d 00       		.byte	0
 2457 019e 00       		.byte	0
 2458 019f 1F       		.uleb128 0x1f
 2459 01a0 13       		.uleb128 0x13
 2460 01a1 01       		.byte	0x1
 2461 01a2 0B       		.uleb128 0xb
 2462 01a3 0B       		.uleb128 0xb
 2463 01a4 3A       		.uleb128 0x3a
 2464 01a5 0B       		.uleb128 0xb
 2465 01a6 3B       		.uleb128 0x3b
 2466 01a7 05       		.uleb128 0x5
 2467 01a8 39       		.uleb128 0x39
 2468 01a9 0B       		.uleb128 0xb
 2469 01aa 01       		.uleb128 0x1
 2470 01ab 13       		.uleb128 0x13
 2471 01ac 00       		.byte	0
 2472 01ad 00       		.byte	0
 2473 01ae 20       		.uleb128 0x20
 2474 01af 26       		.uleb128 0x26
 2475 01b0 00       		.byte	0
 2476 01b1 49       		.uleb128 0x49
ARM GAS  /tmp/ccAKwby4.s 			page 50


 2477 01b2 13       		.uleb128 0x13
 2478 01b3 00       		.byte	0
 2479 01b4 00       		.byte	0
 2480 01b5 21       		.uleb128 0x21
 2481 01b6 21       		.uleb128 0x21
 2482 01b7 00       		.byte	0
 2483 01b8 49       		.uleb128 0x49
 2484 01b9 13       		.uleb128 0x13
 2485 01ba 2F       		.uleb128 0x2f
 2486 01bb 0B       		.uleb128 0xb
 2487 01bc 00       		.byte	0
 2488 01bd 00       		.byte	0
 2489 01be 22       		.uleb128 0x22
 2490 01bf 34       		.uleb128 0x34
 2491 01c0 00       		.byte	0
 2492 01c1 03       		.uleb128 0x3
 2493 01c2 08       		.uleb128 0x8
 2494 01c3 3A       		.uleb128 0x3a
 2495 01c4 0B       		.uleb128 0xb
 2496 01c5 3B       		.uleb128 0x3b
 2497 01c6 0B       		.uleb128 0xb
 2498 01c7 39       		.uleb128 0x39
 2499 01c8 0B       		.uleb128 0xb
 2500 01c9 49       		.uleb128 0x49
 2501 01ca 13       		.uleb128 0x13
 2502 01cb 02       		.uleb128 0x2
 2503 01cc 18       		.uleb128 0x18
 2504 01cd 00       		.byte	0
 2505 01ce 00       		.byte	0
 2506 01cf 23       		.uleb128 0x23
 2507 01d0 2E       		.uleb128 0x2e
 2508 01d1 01       		.byte	0x1
 2509 01d2 3F       		.uleb128 0x3f
 2510 01d3 19       		.uleb128 0x19
 2511 01d4 03       		.uleb128 0x3
 2512 01d5 0E       		.uleb128 0xe
 2513 01d6 3A       		.uleb128 0x3a
 2514 01d7 0B       		.uleb128 0xb
 2515 01d8 3B       		.uleb128 0x3b
 2516 01d9 0B       		.uleb128 0xb
 2517 01da 39       		.uleb128 0x39
 2518 01db 0B       		.uleb128 0xb
 2519 01dc 27       		.uleb128 0x27
 2520 01dd 19       		.uleb128 0x19
 2521 01de 49       		.uleb128 0x49
 2522 01df 13       		.uleb128 0x13
 2523 01e0 3C       		.uleb128 0x3c
 2524 01e1 19       		.uleb128 0x19
 2525 01e2 01       		.uleb128 0x1
 2526 01e3 13       		.uleb128 0x13
 2527 01e4 00       		.byte	0
 2528 01e5 00       		.byte	0
 2529 01e6 24       		.uleb128 0x24
 2530 01e7 2E       		.uleb128 0x2e
 2531 01e8 01       		.byte	0x1
 2532 01e9 3F       		.uleb128 0x3f
 2533 01ea 19       		.uleb128 0x19
ARM GAS  /tmp/ccAKwby4.s 			page 51


 2534 01eb 03       		.uleb128 0x3
 2535 01ec 0E       		.uleb128 0xe
 2536 01ed 3A       		.uleb128 0x3a
 2537 01ee 0B       		.uleb128 0xb
 2538 01ef 3B       		.uleb128 0x3b
 2539 01f0 0B       		.uleb128 0xb
 2540 01f1 39       		.uleb128 0x39
 2541 01f2 0B       		.uleb128 0xb
 2542 01f3 27       		.uleb128 0x27
 2543 01f4 19       		.uleb128 0x19
 2544 01f5 11       		.uleb128 0x11
 2545 01f6 01       		.uleb128 0x1
 2546 01f7 12       		.uleb128 0x12
 2547 01f8 06       		.uleb128 0x6
 2548 01f9 40       		.uleb128 0x40
 2549 01fa 18       		.uleb128 0x18
 2550 01fb 7A       		.uleb128 0x7a
 2551 01fc 19       		.uleb128 0x19
 2552 01fd 01       		.uleb128 0x1
 2553 01fe 13       		.uleb128 0x13
 2554 01ff 00       		.byte	0
 2555 0200 00       		.byte	0
 2556 0201 25       		.uleb128 0x25
 2557 0202 2E       		.uleb128 0x2e
 2558 0203 01       		.byte	0x1
 2559 0204 3F       		.uleb128 0x3f
 2560 0205 19       		.uleb128 0x19
 2561 0206 03       		.uleb128 0x3
 2562 0207 0E       		.uleb128 0xe
 2563 0208 3A       		.uleb128 0x3a
 2564 0209 0B       		.uleb128 0xb
 2565 020a 3B       		.uleb128 0x3b
 2566 020b 0B       		.uleb128 0xb
 2567 020c 39       		.uleb128 0x39
 2568 020d 0B       		.uleb128 0xb
 2569 020e 27       		.uleb128 0x27
 2570 020f 19       		.uleb128 0x19
 2571 0210 49       		.uleb128 0x49
 2572 0211 13       		.uleb128 0x13
 2573 0212 11       		.uleb128 0x11
 2574 0213 01       		.uleb128 0x1
 2575 0214 12       		.uleb128 0x12
 2576 0215 06       		.uleb128 0x6
 2577 0216 40       		.uleb128 0x40
 2578 0217 18       		.uleb128 0x18
 2579 0218 7A       		.uleb128 0x7a
 2580 0219 19       		.uleb128 0x19
 2581 021a 01       		.uleb128 0x1
 2582 021b 13       		.uleb128 0x13
 2583 021c 00       		.byte	0
 2584 021d 00       		.byte	0
 2585 021e 26       		.uleb128 0x26
 2586 021f 48       		.uleb128 0x48
 2587 0220 01       		.byte	0x1
 2588 0221 7D       		.uleb128 0x7d
 2589 0222 01       		.uleb128 0x1
 2590 0223 7F       		.uleb128 0x7f
ARM GAS  /tmp/ccAKwby4.s 			page 52


 2591 0224 13       		.uleb128 0x13
 2592 0225 00       		.byte	0
 2593 0226 00       		.byte	0
 2594 0227 27       		.uleb128 0x27
 2595 0228 2E       		.uleb128 0x2e
 2596 0229 00       		.byte	0
 2597 022a 3F       		.uleb128 0x3f
 2598 022b 19       		.uleb128 0x19
 2599 022c 3C       		.uleb128 0x3c
 2600 022d 19       		.uleb128 0x19
 2601 022e 6E       		.uleb128 0x6e
 2602 022f 0E       		.uleb128 0xe
 2603 0230 03       		.uleb128 0x3
 2604 0231 0E       		.uleb128 0xe
 2605 0232 3A       		.uleb128 0x3a
 2606 0233 0B       		.uleb128 0xb
 2607 0234 3B       		.uleb128 0x3b
 2608 0235 0B       		.uleb128 0xb
 2609 0236 00       		.byte	0
 2610 0237 00       		.byte	0
 2611 0238 00       		.byte	0
 2612              		.section	.debug_loclists,"",%progbits
 2613 0000 CE020000 		.4byte	.Ldebug_loc3-.Ldebug_loc2
 2614              	.Ldebug_loc2:
 2615 0004 0500     		.2byte	0x5
 2616 0006 04       		.byte	0x4
 2617 0007 00       		.byte	0
 2618 0008 00000000 		.4byte	0
 2619              	.Ldebug_loc0:
 2620              	.LVUS0:
 2621 000c 00       		.uleb128 .LVU133
 2622 000d 00       		.uleb128 .LVU136
 2623 000e 00       		.uleb128 .LVU136
 2624 000f 00       		.uleb128 .LVU137
 2625 0010 00       		.uleb128 .LVU137
 2626 0011 00       		.uleb128 .LVU149
 2627              	.LLST0:
 2628 0012 06       		.byte	0x6
 2629 0013 98010000 		.4byte	.LVL41
 2630 0017 04       		.byte	0x4
 2631 0018 00       		.uleb128 .LVL41-.LVL41
 2632 0019 02       		.uleb128 .LVL42-.LVL41
 2633 001a 20       		.uleb128 0x20
 2634 001b A5       		.byte	0xa5
 2635 001c 09       		.uleb128 0x9
 2636 001d 26       		.uleb128 0x26
 2637 001e A5       		.byte	0xa5
 2638 001f 01       		.uleb128 0x1
 2639 0020 26       		.uleb128 0x26
 2640 0021 1C       		.byte	0x1c
 2641 0022 A4       		.byte	0xa4
 2642 0023 26       		.uleb128 0x26
 2643 0024 04       		.byte	0x4
 2644 0025 0000003F 		.4byte	0x3f000000
 2645 0029 1E       		.byte	0x1e
 2646 002a A5       		.byte	0xa5
 2647 002b 07       		.uleb128 0x7
ARM GAS  /tmp/ccAKwby4.s 			page 53


 2648 002c 26       		.uleb128 0x26
 2649 002d A5       		.byte	0xa5
 2650 002e 08       		.uleb128 0x8
 2651 002f 26       		.uleb128 0x26
 2652 0030 A5       		.byte	0xa5
 2653 0031 08       		.uleb128 0x8
 2654 0032 26       		.uleb128 0x26
 2655 0033 22       		.byte	0x22
 2656 0034 1C       		.byte	0x1c
 2657 0035 A5       		.byte	0xa5
 2658 0036 00       		.uleb128 0
 2659 0037 26       		.uleb128 0x26
 2660 0038 22       		.byte	0x22
 2661 0039 1B       		.byte	0x1b
 2662 003a 9F       		.byte	0x9f
 2663 003b 04       		.byte	0x4
 2664 003c 02       		.uleb128 .LVL42-.LVL41
 2665 003d 05       		.uleb128 .LVL43-1-.LVL41
 2666 003e 20       		.uleb128 0x20
 2667 003f A5       		.byte	0xa5
 2668 0040 09       		.uleb128 0x9
 2669 0041 26       		.uleb128 0x26
 2670 0042 A5       		.byte	0xa5
 2671 0043 01       		.uleb128 0x1
 2672 0044 26       		.uleb128 0x26
 2673 0045 1C       		.byte	0x1c
 2674 0046 A4       		.byte	0xa4
 2675 0047 26       		.uleb128 0x26
 2676 0048 04       		.byte	0x4
 2677 0049 0000003F 		.4byte	0x3f000000
 2678 004d 1E       		.byte	0x1e
 2679 004e A5       		.byte	0xa5
 2680 004f 07       		.uleb128 0x7
 2681 0050 26       		.uleb128 0x26
 2682 0051 A5       		.byte	0xa5
 2683 0052 08       		.uleb128 0x8
 2684 0053 26       		.uleb128 0x26
 2685 0054 A5       		.byte	0xa5
 2686 0055 08       		.uleb128 0x8
 2687 0056 26       		.uleb128 0x26
 2688 0057 22       		.byte	0x22
 2689 0058 1C       		.byte	0x1c
 2690 0059 A5       		.byte	0xa5
 2691 005a 0A       		.uleb128 0xa
 2692 005b 26       		.uleb128 0x26
 2693 005c 22       		.byte	0x22
 2694 005d 1B       		.byte	0x1b
 2695 005e 9F       		.byte	0x9f
 2696 005f 04       		.byte	0x4
 2697 0060 05       		.uleb128 .LVL43-1-.LVL41
 2698 0061 50       		.uleb128 .LVL54-.LVL41
 2699 0062 20       		.uleb128 0x20
 2700 0063 A5       		.byte	0xa5
 2701 0064 09       		.uleb128 0x9
 2702 0065 26       		.uleb128 0x26
 2703 0066 A5       		.byte	0xa5
 2704 0067 0B       		.uleb128 0xb
ARM GAS  /tmp/ccAKwby4.s 			page 54


 2705 0068 26       		.uleb128 0x26
 2706 0069 1C       		.byte	0x1c
 2707 006a A4       		.byte	0xa4
 2708 006b 26       		.uleb128 0x26
 2709 006c 04       		.byte	0x4
 2710 006d 0000003F 		.4byte	0x3f000000
 2711 0071 1E       		.byte	0x1e
 2712 0072 A5       		.byte	0xa5
 2713 0073 07       		.uleb128 0x7
 2714 0074 26       		.uleb128 0x26
 2715 0075 A5       		.byte	0xa5
 2716 0076 08       		.uleb128 0x8
 2717 0077 26       		.uleb128 0x26
 2718 0078 A5       		.byte	0xa5
 2719 0079 08       		.uleb128 0x8
 2720 007a 26       		.uleb128 0x26
 2721 007b 22       		.byte	0x22
 2722 007c 1C       		.byte	0x1c
 2723 007d A5       		.byte	0xa5
 2724 007e 0A       		.uleb128 0xa
 2725 007f 26       		.uleb128 0x26
 2726 0080 22       		.byte	0x22
 2727 0081 1B       		.byte	0x1b
 2728 0082 9F       		.byte	0x9f
 2729 0083 00       		.byte	0
 2730              	.LVUS1:
 2731 0084 01       		.uleb128 .LVU134
 2732 0085 00       		.uleb128 .LVU136
 2733 0086 00       		.uleb128 .LVU136
 2734 0087 00       		.uleb128 .LVU137
 2735 0088 00       		.uleb128 .LVU137
 2736 0089 00       		.uleb128 .LVU149
 2737              	.LLST1:
 2738 008a 06       		.byte	0x6
 2739 008b 98010000 		.4byte	.LVL41
 2740 008f 04       		.byte	0x4
 2741 0090 00       		.uleb128 .LVL41-.LVL41
 2742 0091 02       		.uleb128 .LVL42-.LVL41
 2743 0092 2F       		.uleb128 0x2f
 2744 0093 A5       		.byte	0xa5
 2745 0094 09       		.uleb128 0x9
 2746 0095 26       		.uleb128 0x26
 2747 0096 A5       		.byte	0xa5
 2748 0097 01       		.uleb128 0x1
 2749 0098 26       		.uleb128 0x26
 2750 0099 1C       		.byte	0x1c
 2751 009a A4       		.byte	0xa4
 2752 009b 26       		.uleb128 0x26
 2753 009c 04       		.byte	0x4
 2754 009d 0000003F 		.4byte	0x3f000000
 2755 00a1 1E       		.byte	0x1e
 2756 00a2 A5       		.byte	0xa5
 2757 00a3 07       		.uleb128 0x7
 2758 00a4 26       		.uleb128 0x26
 2759 00a5 A5       		.byte	0xa5
 2760 00a6 08       		.uleb128 0x8
 2761 00a7 26       		.uleb128 0x26
ARM GAS  /tmp/ccAKwby4.s 			page 55


 2762 00a8 A5       		.byte	0xa5
 2763 00a9 08       		.uleb128 0x8
 2764 00aa 26       		.uleb128 0x26
 2765 00ab 22       		.byte	0x22
 2766 00ac 1C       		.byte	0x1c
 2767 00ad A5       		.byte	0xa5
 2768 00ae 00       		.uleb128 0
 2769 00af 26       		.uleb128 0x26
 2770 00b0 22       		.byte	0x22
 2771 00b1 1B       		.byte	0x1b
 2772 00b2 75       		.byte	0x75
 2773 00b3 00       		.sleb128 0
 2774 00b4 A8       		.byte	0xa8
 2775 00b5 2D       		.uleb128 0x2d
 2776 00b6 A8       		.byte	0xa8
 2777 00b7 26       		.uleb128 0x26
 2778 00b8 22       		.byte	0x22
 2779 00b9 A4       		.byte	0xa4
 2780 00ba 26       		.uleb128 0x26
 2781 00bb 04       		.byte	0x4
 2782 00bc AE47613E 		.4byte	0x3e6147ae
 2783 00c0 1E       		.byte	0x1e
 2784 00c1 9F       		.byte	0x9f
 2785 00c2 04       		.byte	0x4
 2786 00c3 02       		.uleb128 .LVL42-.LVL41
 2787 00c4 05       		.uleb128 .LVL43-1-.LVL41
 2788 00c5 2F       		.uleb128 0x2f
 2789 00c6 A5       		.byte	0xa5
 2790 00c7 09       		.uleb128 0x9
 2791 00c8 26       		.uleb128 0x26
 2792 00c9 A5       		.byte	0xa5
 2793 00ca 01       		.uleb128 0x1
 2794 00cb 26       		.uleb128 0x26
 2795 00cc 1C       		.byte	0x1c
 2796 00cd A4       		.byte	0xa4
 2797 00ce 26       		.uleb128 0x26
 2798 00cf 04       		.byte	0x4
 2799 00d0 0000003F 		.4byte	0x3f000000
 2800 00d4 1E       		.byte	0x1e
 2801 00d5 A5       		.byte	0xa5
 2802 00d6 07       		.uleb128 0x7
 2803 00d7 26       		.uleb128 0x26
 2804 00d8 A5       		.byte	0xa5
 2805 00d9 08       		.uleb128 0x8
 2806 00da 26       		.uleb128 0x26
 2807 00db A5       		.byte	0xa5
 2808 00dc 08       		.uleb128 0x8
 2809 00dd 26       		.uleb128 0x26
 2810 00de 22       		.byte	0x22
 2811 00df 1C       		.byte	0x1c
 2812 00e0 A5       		.byte	0xa5
 2813 00e1 0A       		.uleb128 0xa
 2814 00e2 26       		.uleb128 0x26
 2815 00e3 22       		.byte	0x22
 2816 00e4 1B       		.byte	0x1b
 2817 00e5 75       		.byte	0x75
 2818 00e6 00       		.sleb128 0
ARM GAS  /tmp/ccAKwby4.s 			page 56


 2819 00e7 A8       		.byte	0xa8
 2820 00e8 2D       		.uleb128 0x2d
 2821 00e9 A8       		.byte	0xa8
 2822 00ea 26       		.uleb128 0x26
 2823 00eb 22       		.byte	0x22
 2824 00ec A4       		.byte	0xa4
 2825 00ed 26       		.uleb128 0x26
 2826 00ee 04       		.byte	0x4
 2827 00ef AE47613E 		.4byte	0x3e6147ae
 2828 00f3 1E       		.byte	0x1e
 2829 00f4 9F       		.byte	0x9f
 2830 00f5 04       		.byte	0x4
 2831 00f6 05       		.uleb128 .LVL43-1-.LVL41
 2832 00f7 50       		.uleb128 .LVL54-.LVL41
 2833 00f8 2F       		.uleb128 0x2f
 2834 00f9 A5       		.byte	0xa5
 2835 00fa 09       		.uleb128 0x9
 2836 00fb 26       		.uleb128 0x26
 2837 00fc A5       		.byte	0xa5
 2838 00fd 0B       		.uleb128 0xb
 2839 00fe 26       		.uleb128 0x26
 2840 00ff 1C       		.byte	0x1c
 2841 0100 A4       		.byte	0xa4
 2842 0101 26       		.uleb128 0x26
 2843 0102 04       		.byte	0x4
 2844 0103 0000003F 		.4byte	0x3f000000
 2845 0107 1E       		.byte	0x1e
 2846 0108 A5       		.byte	0xa5
 2847 0109 07       		.uleb128 0x7
 2848 010a 26       		.uleb128 0x26
 2849 010b A5       		.byte	0xa5
 2850 010c 08       		.uleb128 0x8
 2851 010d 26       		.uleb128 0x26
 2852 010e A5       		.byte	0xa5
 2853 010f 08       		.uleb128 0x8
 2854 0110 26       		.uleb128 0x26
 2855 0111 22       		.byte	0x22
 2856 0112 1C       		.byte	0x1c
 2857 0113 A5       		.byte	0xa5
 2858 0114 0A       		.uleb128 0xa
 2859 0115 26       		.uleb128 0x26
 2860 0116 22       		.byte	0x22
 2861 0117 1B       		.byte	0x1b
 2862 0118 75       		.byte	0x75
 2863 0119 00       		.sleb128 0
 2864 011a A8       		.byte	0xa8
 2865 011b 2D       		.uleb128 0x2d
 2866 011c A8       		.byte	0xa8
 2867 011d 26       		.uleb128 0x26
 2868 011e 22       		.byte	0x22
 2869 011f A4       		.byte	0xa4
 2870 0120 26       		.uleb128 0x26
 2871 0121 04       		.byte	0x4
 2872 0122 AE47613E 		.4byte	0x3e6147ae
 2873 0126 1E       		.byte	0x1e
 2874 0127 9F       		.byte	0x9f
 2875 0128 00       		.byte	0
ARM GAS  /tmp/ccAKwby4.s 			page 57


 2876              	.LVUS2:
 2877 0129 00       		.uleb128 .LVU109
 2878 012a 00       		.uleb128 .LVU112
 2879 012b 00       		.uleb128 .LVU113
 2880 012c 00       		.uleb128 .LVU129
 2881 012d 00       		.uleb128 .LVU149
 2882 012e 00       		.uleb128 .LVU150
 2883 012f 00       		.uleb128 .LVU150
 2884 0130 00       		.uleb128 0
 2885              	.LLST2:
 2886 0131 06       		.byte	0x6
 2887 0132 40010000 		.4byte	.LVL25
 2888 0136 04       		.byte	0x4
 2889 0137 00       		.uleb128 .LVL25-.LVL25
 2890 0138 07       		.uleb128 .LVL26-1-.LVL25
 2891 0139 07       		.uleb128 0x7
 2892 013a 70       		.byte	0x70
 2893 013b 00       		.sleb128 0
 2894 013c A8       		.byte	0xa8
 2895 013d 34       		.uleb128 0x34
 2896 013e A8       		.byte	0xa8
 2897 013f 26       		.uleb128 0x26
 2898 0140 9F       		.byte	0x9f
 2899 0141 04       		.byte	0x4
 2900 0142 0A       		.uleb128 .LVL27-.LVL25
 2901 0143 46       		.uleb128 .LVL37-.LVL25
 2902 0144 01       		.uleb128 0x1
 2903 0145 57       		.byte	0x57
 2904 0146 04       		.byte	0x4
 2905 0147 A801     		.uleb128 .LVL54-.LVL25
 2906 0149 AC01     		.uleb128 .LVL55-.LVL25
 2907 014b 07       		.uleb128 0x7
 2908 014c 70       		.byte	0x70
 2909 014d 00       		.sleb128 0
 2910 014e A8       		.byte	0xa8
 2911 014f 34       		.uleb128 0x34
 2912 0150 A8       		.byte	0xa8
 2913 0151 26       		.uleb128 0x26
 2914 0152 9F       		.byte	0x9f
 2915 0153 04       		.byte	0x4
 2916 0154 AC01     		.uleb128 .LVL55-.LVL25
 2917 0156 E401     		.uleb128 .LFE122-.LVL25
 2918 0158 01       		.uleb128 0x1
 2919 0159 57       		.byte	0x57
 2920 015a 00       		.byte	0
 2921              	.LVUS3:
 2922 015b 00       		.uleb128 .LVU115
 2923 015c 00       		.uleb128 .LVU118
 2924 015d 00       		.uleb128 .LVU119
 2925 015e 00       		.uleb128 .LVU130
 2926 015f 00       		.uleb128 .LVU150
 2927 0160 00       		.uleb128 .LVU151
 2928 0161 00       		.uleb128 .LVU151
 2929 0162 00       		.uleb128 0
 2930              	.LLST3:
 2931 0163 06       		.byte	0x6
 2932 0164 52010000 		.4byte	.LVL28
ARM GAS  /tmp/ccAKwby4.s 			page 58


 2933 0168 04       		.byte	0x4
 2934 0169 00       		.uleb128 .LVL28-.LVL28
 2935 016a 07       		.uleb128 .LVL29-1-.LVL28
 2936 016b 07       		.uleb128 0x7
 2937 016c 70       		.byte	0x70
 2938 016d 00       		.sleb128 0
 2939 016e A8       		.byte	0xa8
 2940 016f 34       		.uleb128 0x34
 2941 0170 A8       		.byte	0xa8
 2942 0171 26       		.uleb128 0x26
 2943 0172 9F       		.byte	0x9f
 2944 0173 04       		.byte	0x4
 2945 0174 0A       		.uleb128 .LVL30-.LVL28
 2946 0175 3C       		.uleb128 .LVL39-.LVL28
 2947 0176 01       		.uleb128 0x1
 2948 0177 58       		.byte	0x58
 2949 0178 04       		.byte	0x4
 2950 0179 9A01     		.uleb128 .LVL55-.LVL28
 2951 017b A001     		.uleb128 .LVL56-.LVL28
 2952 017d 07       		.uleb128 0x7
 2953 017e 70       		.byte	0x70
 2954 017f 00       		.sleb128 0
 2955 0180 A8       		.byte	0xa8
 2956 0181 34       		.uleb128 0x34
 2957 0182 A8       		.byte	0xa8
 2958 0183 26       		.uleb128 0x26
 2959 0184 9F       		.byte	0x9f
 2960 0185 04       		.byte	0x4
 2961 0186 A001     		.uleb128 .LVL56-.LVL28
 2962 0188 D201     		.uleb128 .LFE122-.LVL28
 2963 018a 01       		.uleb128 0x1
 2964 018b 58       		.byte	0x58
 2965 018c 00       		.byte	0
 2966              	.LVUS4:
 2967 018d 00       		.uleb128 .LVU121
 2968 018e 00       		.uleb128 .LVU124
 2969 018f 00       		.uleb128 .LVU125
 2970 0190 00       		.uleb128 .LVU140
 2971 0191 00       		.uleb128 .LVU151
 2972 0192 00       		.uleb128 0
 2973              	.LLST4:
 2974 0193 06       		.byte	0x6
 2975 0194 64010000 		.4byte	.LVL31
 2976 0198 04       		.byte	0x4
 2977 0199 00       		.uleb128 .LVL31-.LVL31
 2978 019a 07       		.uleb128 .LVL32-1-.LVL31
 2979 019b 07       		.uleb128 0x7
 2980 019c 70       		.byte	0x70
 2981 019d 00       		.sleb128 0
 2982 019e A8       		.byte	0xa8
 2983 019f 34       		.uleb128 0x34
 2984 01a0 A8       		.byte	0xa8
 2985 01a1 26       		.uleb128 0x26
 2986 01a2 9F       		.byte	0x9f
 2987 01a3 04       		.byte	0x4
 2988 01a4 0A       		.uleb128 .LVL33-.LVL31
 2989 01a5 46       		.uleb128 .LVL45-.LVL31
ARM GAS  /tmp/ccAKwby4.s 			page 59


 2990 01a6 01       		.uleb128 0x1
 2991 01a7 56       		.byte	0x56
 2992 01a8 04       		.byte	0x4
 2993 01a9 8E01     		.uleb128 .LVL56-.LVL31
 2994 01ab C001     		.uleb128 .LFE122-.LVL31
 2995 01ad 07       		.uleb128 0x7
 2996 01ae 70       		.byte	0x70
 2997 01af 00       		.sleb128 0
 2998 01b0 A8       		.byte	0xa8
 2999 01b1 34       		.uleb128 0x34
 3000 01b2 A8       		.byte	0xa8
 3001 01b3 26       		.uleb128 0x26
 3002 01b4 9F       		.byte	0x9f
 3003 01b5 00       		.byte	0
 3004              	.LVUS6:
 3005 01b6 03       		.uleb128 .LVU3
 3006 01b7 00       		.uleb128 .LVU9
 3007 01b8 00       		.uleb128 .LVU9
 3008 01b9 00       		.uleb128 .LVU12
 3009 01ba 00       		.uleb128 .LVU12
 3010 01bb 01       		.uleb128 .LVU17
 3011              	.LLST6:
 3012 01bc 06       		.byte	0x6
 3013 01bd 00000000 		.4byte	.LVL0
 3014 01c1 04       		.byte	0x4
 3015 01c2 00       		.uleb128 .LVL0-.LVL0
 3016 01c3 10       		.uleb128 .LVL1-.LVL0
 3017 01c4 02       		.uleb128 0x2
 3018 01c5 30       		.byte	0x30
 3019 01c6 9F       		.byte	0x9f
 3020 01c7 04       		.byte	0x4
 3021 01c8 10       		.uleb128 .LVL1-.LVL0
 3022 01c9 16       		.uleb128 .LVL2-.LVL0
 3023 01ca 0B       		.uleb128 0xb
 3024 01cb 73       		.byte	0x73
 3025 01cc 00       		.sleb128 0
 3026 01cd A8       		.byte	0xa8
 3027 01ce 2D       		.uleb128 0x2d
 3028 01cf 33       		.byte	0x33
 3029 01d0 A8       		.byte	0xa8
 3030 01d1 2D       		.uleb128 0x2d
 3031 01d2 1B       		.byte	0x1b
 3032 01d3 A8       		.byte	0xa8
 3033 01d4 00       		.uleb128 0
 3034 01d5 9F       		.byte	0x9f
 3035 01d6 04       		.byte	0x4
 3036 01d7 16       		.uleb128 .LVL2-.LVL0
 3037 01d8 1E       		.uleb128 .LVL3-.LVL0
 3038 01d9 0B       		.uleb128 0xb
 3039 01da 73       		.byte	0x73
 3040 01db 7D       		.sleb128 -3
 3041 01dc A8       		.byte	0xa8
 3042 01dd 2D       		.uleb128 0x2d
 3043 01de 33       		.byte	0x33
 3044 01df A8       		.byte	0xa8
 3045 01e0 2D       		.uleb128 0x2d
 3046 01e1 1B       		.byte	0x1b
ARM GAS  /tmp/ccAKwby4.s 			page 60


 3047 01e2 A8       		.byte	0xa8
 3048 01e3 00       		.uleb128 0
 3049 01e4 9F       		.byte	0x9f
 3050 01e5 00       		.byte	0
 3051              	.LVUS8:
 3052 01e6 02       		.uleb128 .LVU24
 3053 01e7 00       		.uleb128 .LVU26
 3054 01e8 00       		.uleb128 .LVU26
 3055 01e9 00       		.uleb128 .LVU37
 3056 01ea 00       		.uleb128 .LVU37
 3057 01eb 02       		.uleb128 .LVU46
 3058              	.LLST8:
 3059 01ec 06       		.byte	0x6
 3060 01ed 36000000 		.4byte	.LVL4
 3061 01f1 04       		.byte	0x4
 3062 01f2 00       		.uleb128 .LVL4-.LVL4
 3063 01f3 0C       		.uleb128 .LVL5-.LVL4
 3064 01f4 02       		.uleb128 0x2
 3065 01f5 30       		.byte	0x30
 3066 01f6 9F       		.byte	0x9f
 3067 01f7 04       		.byte	0x4
 3068 01f8 0C       		.uleb128 .LVL5-.LVL4
 3069 01f9 1C       		.uleb128 .LVL7-.LVL4
 3070 01fa 01       		.uleb128 0x1
 3071 01fb 55       		.byte	0x55
 3072 01fc 04       		.byte	0x4
 3073 01fd 1C       		.uleb128 .LVL7-.LVL4
 3074 01fe 32       		.uleb128 .LVL10-.LVL4
 3075 01ff 03       		.uleb128 0x3
 3076 0200 75       		.byte	0x75
 3077 0201 7F       		.sleb128 -1
 3078 0202 9F       		.byte	0x9f
 3079 0203 00       		.byte	0
 3080              	.LVUS10:
 3081 0204 00       		.uleb128 .LVU30
 3082 0205 00       		.uleb128 .LVU43
 3083 0206 00       		.uleb128 .LVU43
 3084 0207 00       		.uleb128 .LVU44
 3085              	.LLST10:
 3086 0208 06       		.byte	0x6
 3087 0209 48000000 		.4byte	.LVL6
 3088 020d 04       		.byte	0x4
 3089 020e 00       		.uleb128 .LVL6-.LVL6
 3090 020f 1C       		.uleb128 .LVL9-.LVL6
 3091 0210 13       		.uleb128 0x13
 3092 0211 72       		.byte	0x72
 3093 0212 00       		.sleb128 0
 3094 0213 94       		.byte	0x94
 3095 0214 02       		.byte	0x2
 3096 0215 71       		.byte	0x71
 3097 0216 00       		.sleb128 0
 3098 0217 1C       		.byte	0x1c
 3099 0218 40       		.byte	0x40
 3100 0219 24       		.byte	0x24
 3101 021a 40       		.byte	0x40
 3102 021b 26       		.byte	0x26
 3103 021c 7C       		.byte	0x7c
ARM GAS  /tmp/ccAKwby4.s 			page 61


 3104 021d 00       		.sleb128 0
 3105 021e 40       		.byte	0x40
 3106 021f 24       		.byte	0x24
 3107 0220 40       		.byte	0x40
 3108 0221 26       		.byte	0x26
 3109 0222 1E       		.byte	0x1e
 3110 0223 9F       		.byte	0x9f
 3111 0224 04       		.byte	0x4
 3112 0225 1C       		.uleb128 .LVL9-.LVL6
 3113 0226 20       		.uleb128 .LVL10-.LVL6
 3114 0227 13       		.uleb128 0x13
 3115 0228 72       		.byte	0x72
 3116 0229 7C       		.sleb128 -4
 3117 022a 94       		.byte	0x94
 3118 022b 02       		.byte	0x2
 3119 022c 71       		.byte	0x71
 3120 022d 00       		.sleb128 0
 3121 022e 1C       		.byte	0x1c
 3122 022f 40       		.byte	0x40
 3123 0230 24       		.byte	0x24
 3124 0231 40       		.byte	0x40
 3125 0232 26       		.byte	0x26
 3126 0233 7C       		.byte	0x7c
 3127 0234 00       		.sleb128 0
 3128 0235 40       		.byte	0x40
 3129 0236 24       		.byte	0x24
 3130 0237 40       		.byte	0x40
 3131 0238 26       		.byte	0x26
 3132 0239 1E       		.byte	0x1e
 3133 023a 9F       		.byte	0x9f
 3134 023b 00       		.byte	0
 3135              	.LVUS12:
 3136 023c 00       		.uleb128 .LVU41
 3137 023d 00       		.uleb128 .LVU48
 3138              	.LLST12:
 3139 023e 08       		.byte	0x8
 3140 023f 60000000 		.4byte	.LVL8
 3141 0243 10       		.uleb128 .LVL11-.LVL8
 3142 0244 01       		.uleb128 0x1
 3143 0245 53       		.byte	0x53
 3144 0246 00       		.byte	0
 3145              	.LVUS13:
 3146 0247 02       		.uleb128 .LVU32
 3147 0248 00       		.uleb128 .LVU43
 3148 0249 00       		.uleb128 .LVU43
 3149 024a 00       		.uleb128 .LVU44
 3150              	.LLST13:
 3151 024b 06       		.byte	0x6
 3152 024c 48000000 		.4byte	.LVL6
 3153 0250 04       		.byte	0x4
 3154 0251 00       		.uleb128 .LVL6-.LVL6
 3155 0252 1C       		.uleb128 .LVL9-.LVL6
 3156 0253 15       		.uleb128 0x15
 3157 0254 72       		.byte	0x72
 3158 0255 00       		.sleb128 0
 3159 0256 94       		.byte	0x94
 3160 0257 02       		.byte	0x2
ARM GAS  /tmp/ccAKwby4.s 			page 62


 3161 0258 71       		.byte	0x71
 3162 0259 00       		.sleb128 0
 3163 025a 1C       		.byte	0x1c
 3164 025b 40       		.byte	0x40
 3165 025c 24       		.byte	0x24
 3166 025d 40       		.byte	0x40
 3167 025e 26       		.byte	0x26
 3168 025f 7C       		.byte	0x7c
 3169 0260 00       		.sleb128 0
 3170 0261 40       		.byte	0x40
 3171 0262 24       		.byte	0x24
 3172 0263 40       		.byte	0x40
 3173 0264 26       		.byte	0x26
 3174 0265 1E       		.byte	0x1e
 3175 0266 3F       		.byte	0x3f
 3176 0267 26       		.byte	0x26
 3177 0268 9F       		.byte	0x9f
 3178 0269 04       		.byte	0x4
 3179 026a 1C       		.uleb128 .LVL9-.LVL6
 3180 026b 20       		.uleb128 .LVL10-.LVL6
 3181 026c 15       		.uleb128 0x15
 3182 026d 72       		.byte	0x72
 3183 026e 7C       		.sleb128 -4
 3184 026f 94       		.byte	0x94
 3185 0270 02       		.byte	0x2
 3186 0271 71       		.byte	0x71
 3187 0272 00       		.sleb128 0
 3188 0273 1C       		.byte	0x1c
 3189 0274 40       		.byte	0x40
 3190 0275 24       		.byte	0x24
 3191 0276 40       		.byte	0x40
 3192 0277 26       		.byte	0x26
 3193 0278 7C       		.byte	0x7c
 3194 0279 00       		.sleb128 0
 3195 027a 40       		.byte	0x40
 3196 027b 24       		.byte	0x24
 3197 027c 40       		.byte	0x40
 3198 027d 26       		.byte	0x26
 3199 027e 1E       		.byte	0x1e
 3200 027f 3F       		.byte	0x3f
 3201 0280 26       		.byte	0x26
 3202 0281 9F       		.byte	0x9f
 3203 0282 00       		.byte	0
 3204              	.LVUS14:
 3205 0283 02       		.uleb128 .LVU54
 3206 0284 00       		.uleb128 .LVU57
 3207 0285 00       		.uleb128 .LVU57
 3208 0286 00       		.uleb128 .LVU60
 3209 0287 00       		.uleb128 .LVU60
 3210 0288 00       		.uleb128 .LVU61
 3211 0289 01       		.uleb128 .LVU65
 3212 028a 00       		.uleb128 .LVU72
 3213              	.LLST14:
 3214 028b 06       		.byte	0x6
 3215 028c 9A000000 		.4byte	.LVL15
 3216 0290 04       		.byte	0x4
 3217 0291 00       		.uleb128 .LVL15-.LVL15
ARM GAS  /tmp/ccAKwby4.s 			page 63


 3218 0292 0A       		.uleb128 .LVL16-.LVL15
 3219 0293 02       		.uleb128 0x2
 3220 0294 30       		.byte	0x30
 3221 0295 9F       		.byte	0x9f
 3222 0296 04       		.byte	0x4
 3223 0297 0A       		.uleb128 .LVL16-.LVL15
 3224 0298 10       		.uleb128 .LVL17-.LVL15
 3225 0299 01       		.uleb128 0x1
 3226 029a 53       		.byte	0x53
 3227 029b 04       		.byte	0x4
 3228 029c 10       		.uleb128 .LVL17-.LVL15
 3229 029d 12       		.uleb128 .LVL18-.LVL15
 3230 029e 03       		.uleb128 0x3
 3231 029f 73       		.byte	0x73
 3232 02a0 7F       		.sleb128 -1
 3233 02a1 9F       		.byte	0x9f
 3234 02a2 04       		.byte	0x4
 3235 02a3 1C       		.uleb128 .LVL19-.LVL15
 3236 02a4 33       		.uleb128 .LVL20-1-.LVL15
 3237 02a5 01       		.uleb128 0x1
 3238 02a6 53       		.byte	0x53
 3239 02a7 00       		.byte	0
 3240              	.LVUS15:
 3241 02a8 00       		.uleb128 .LVU95
 3242 02a9 01       		.uleb128 .LVU104
 3243 02aa 01       		.uleb128 .LVU104
 3244 02ab 00       		.uleb128 .LVU105
 3245 02ac 00       		.uleb128 .LVU105
 3246 02ad 00       		.uleb128 .LVU112
 3247 02ae 00       		.uleb128 .LVU149
 3248 02af 00       		.uleb128 .LVU150
 3249              	.LLST15:
 3250 02b0 06       		.byte	0x6
 3251 02b1 1C010000 		.4byte	.LVL22
 3252 02b5 04       		.byte	0x4
 3253 02b6 00       		.uleb128 .LVL22-.LVL22
 3254 02b7 10       		.uleb128 .LVL23-.LVL22
 3255 02b8 01       		.uleb128 0x1
 3256 02b9 53       		.byte	0x53
 3257 02ba 04       		.byte	0x4
 3258 02bb 10       		.uleb128 .LVL23-.LVL22
 3259 02bc 12       		.uleb128 .LVL24-.LVL22
 3260 02bd 03       		.uleb128 0x3
 3261 02be 73       		.byte	0x73
 3262 02bf 01       		.sleb128 1
 3263 02c0 9F       		.byte	0x9f
 3264 02c1 04       		.byte	0x4
 3265 02c2 12       		.uleb128 .LVL24-.LVL22
 3266 02c3 2B       		.uleb128 .LVL26-1-.LVL22
 3267 02c4 03       		.uleb128 0x3
 3268 02c5 73       		.byte	0x73
 3269 02c6 00       		.sleb128 0
 3270 02c7 9F       		.byte	0x9f
 3271 02c8 04       		.byte	0x4
 3272 02c9 CC01     		.uleb128 .LVL54-.LVL22
 3273 02cb D001     		.uleb128 .LVL55-.LVL22
 3274 02cd 03       		.uleb128 0x3
ARM GAS  /tmp/ccAKwby4.s 			page 64


 3275 02ce 73       		.byte	0x73
 3276 02cf 00       		.sleb128 0
 3277 02d0 9F       		.byte	0x9f
 3278 02d1 00       		.byte	0
 3279              	.Ldebug_loc3:
 3280              		.section	.debug_aranges,"",%progbits
 3281 0000 24000000 		.4byte	0x24
 3282 0004 0200     		.2byte	0x2
 3283 0006 00000000 		.4byte	.Ldebug_info0
 3284 000a 04       		.byte	0x4
 3285 000b 00       		.byte	0
 3286 000c 0000     		.2byte	0
 3287 000e 0000     		.2byte	0
 3288 0010 00000000 		.4byte	.Ltext0
 3289 0014 24020000 		.4byte	.Letext0-.Ltext0
 3290 0018 00000000 		.4byte	.LFB121
 3291 001c 68000000 		.4byte	.LFE121-.LFB121
 3292 0020 00000000 		.4byte	0
 3293 0024 00000000 		.4byte	0
 3294              		.section	.debug_rnglists,"",%progbits
 3295              	.Ldebug_ranges0:
 3296 0000 52000000 		.4byte	.Ldebug_ranges3-.Ldebug_ranges2
 3297              	.Ldebug_ranges2:
 3298 0004 0500     		.2byte	0x5
 3299 0006 04       		.byte	0x4
 3300 0007 00       		.byte	0
 3301 0008 00000000 		.4byte	0
 3302              	.LLRL5:
 3303 000c 05       		.byte	0x5
 3304 000d 00000000 		.4byte	.LBB2
 3305 0011 04       		.byte	0x4
 3306 0012 00       		.uleb128 .LBB2-.LBB2
 3307 0013 00       		.uleb128 .LBE2-.LBB2
 3308 0014 04       		.byte	0x4
 3309 0015 08       		.uleb128 .LBB3-.LBB2
 3310 0016 0A       		.uleb128 .LBE3-.LBB2
 3311 0017 04       		.byte	0x4
 3312 0018 0E       		.uleb128 .LBB4-.LBB2
 3313 0019 24       		.uleb128 .LBE4-.LBB2
 3314 001a 00       		.byte	0
 3315              	.LLRL7:
 3316 001b 05       		.byte	0x5
 3317 001c 24000000 		.4byte	.LBB5
 3318 0020 04       		.byte	0x4
 3319 0021 00       		.uleb128 .LBB5-.LBB5
 3320 0022 04       		.uleb128 .LBE5-.LBB5
 3321 0023 04       		.byte	0x4
 3322 0024 12       		.uleb128 .LBB13-.LBB5
 3323 0025 46       		.uleb128 .LBE13-.LBB5
 3324 0026 00       		.byte	0
 3325              	.LLRL9:
 3326 0027 05       		.byte	0x5
 3327 0028 24000000 		.4byte	.LBB6
 3328 002c 04       		.byte	0x4
 3329 002d 00       		.uleb128 .LBB6-.LBB6
 3330 002e 04       		.uleb128 .LBE6-.LBB6
 3331 002f 04       		.byte	0x4
ARM GAS  /tmp/ccAKwby4.s 			page 65


 3332 0030 12       		.uleb128 .LBB10-.LBB6
 3333 0031 2C       		.uleb128 .LBE10-.LBB6
 3334 0032 04       		.byte	0x4
 3335 0033 32       		.uleb128 .LBB11-.LBB6
 3336 0034 3C       		.uleb128 .LBE11-.LBB6
 3337 0035 04       		.byte	0x4
 3338 0036 40       		.uleb128 .LBB12-.LBB6
 3339 0037 44       		.uleb128 .LBE12-.LBB6
 3340 0038 00       		.byte	0
 3341              	.LLRL11:
 3342 0039 05       		.byte	0x5
 3343 003a 48000000 		.4byte	.LBB7
 3344 003e 04       		.byte	0x4
 3345 003f 00       		.uleb128 .LBB7-.LBB7
 3346 0040 00       		.uleb128 .LBE7-.LBB7
 3347 0041 04       		.byte	0x4
 3348 0042 0E       		.uleb128 .LBB8-.LBB7
 3349 0043 12       		.uleb128 .LBE8-.LBB7
 3350 0044 04       		.byte	0x4
 3351 0045 14       		.uleb128 .LBB9-.LBB7
 3352 0046 18       		.uleb128 .LBE9-.LBB7
 3353 0047 00       		.byte	0
 3354              	.LLRL16:
 3355 0048 07       		.byte	0x7
 3356 0049 00000000 		.4byte	.Ltext0
 3357 004d A404     		.uleb128 .Letext0-.Ltext0
 3358 004f 07       		.byte	0x7
 3359 0050 00000000 		.4byte	.LFB121
 3360 0054 68       		.uleb128 .LFE121-.LFB121
 3361 0055 00       		.byte	0
 3362              	.Ldebug_ranges3:
 3363              		.section	.debug_line,"",%progbits
 3364              	.Ldebug_line0:
 3365 0000 80040000 		.section	.debug_str,"MS",%progbits,1
 3365      03009701 
 3365      00000201 
 3365      FB0E0D00 
 3365      01010101 
 3366              	.LASF37:
 3367 0000 69666674 		.ascii	"ifftFlag\000"
 3367      466C6167 
 3367      00
 3368              	.LASF88:
 3369 0009 5F5F6165 		.ascii	"__aeabi_fmul\000"
 3369      6162695F 
 3369      666D756C 
 3369      00
 3370              	.LASF53:
 3371 0016 6D617856 		.ascii	"maxVal\000"
 3371      616C00
 3372              	.LASF34:
 3373 001d 7131355F 		.ascii	"q15_t\000"
 3373      7400
 3374              	.LASF16:
 3375 0023 696E7438 		.ascii	"int8_t\000"
 3375      5F7400
 3376              	.LASF31:
ARM GAS  /tmp/ccAKwby4.s 			page 66


 3377 002a 41524D5F 		.ascii	"ARM_MATH_SINGULAR\000"
 3377      4D415448 
 3377      5F53494E 
 3377      47554C41 
 3377      5200
 3378              	.LASF33:
 3379 003c 61726D5F 		.ascii	"arm_status\000"
 3379      73746174 
 3379      757300
 3380              	.LASF2:
 3381 0047 73686F72 		.ascii	"short int\000"
 3381      7420696E 
 3381      7400
 3382              	.LASF22:
 3383 0051 73697A65 		.ascii	"size_t\000"
 3383      5F7400
 3384              	.LASF52:
 3385 0058 696E7075 		.ascii	"input\000"
 3385      7400
 3386              	.LASF71:
 3387 005e 61726D5F 		.ascii	"arm_cfft_radix4_init_q15\000"
 3387      63666674 
 3387      5F726164 
 3387      6978345F 
 3387      696E6974 
 3388              	.LASF42:
 3389 0077 62697452 		.ascii	"bitRevFactor\000"
 3389      65764661 
 3389      63746F72 
 3389      00
 3390              	.LASF80:
 3391 0084 6D61675F 		.ascii	"mag_km1\000"
 3391      6B6D3100 
 3392              	.LASF78:
 3393 008c 64656C74 		.ascii	"delta\000"
 3393      6100
 3394              	.LASF26:
 3395 0092 41524D5F 		.ascii	"ARM_MATH_SUCCESS\000"
 3395      4D415448 
 3395      5F535543 
 3395      43455353 
 3395      00
 3396              	.LASF97:
 3397 00a3 6D61696E 		.ascii	"main\000"
 3397      00
 3398              	.LASF55:
 3399 00a8 6D65616E 		.ascii	"mean_value\000"
 3399      5F76616C 
 3399      756500
 3400              	.LASF54:
 3401 00b3 6D617849 		.ascii	"maxIndex\000"
 3401      6E646578 
 3401      00
 3402              	.LASF72:
 3403 00bc 73746172 		.ascii	"start_process\000"
 3403      745F7072 
 3403      6F636573 
ARM GAS  /tmp/ccAKwby4.s 			page 67


 3403      7300
 3404              	.LASF8:
 3405 00ca 5F5F7569 		.ascii	"__uint16_t\000"
 3405      6E743136 
 3405      5F7400
 3406              	.LASF56:
 3407 00d5 6E6F6973 		.ascii	"noisefloor\000"
 3407      65666C6F 
 3407      6F7200
 3408              	.LASF30:
 3409 00e0 41524D5F 		.ascii	"ARM_MATH_NANINF\000"
 3409      4D415448 
 3409      5F4E414E 
 3409      494E4600 
 3410              	.LASF73:
 3411 00f0 6C65645F 		.ascii	"led_init\000"
 3411      696E6974 
 3411      00
 3412              	.LASF98:
 3413 00f9 5F5F6275 		.ascii	"__builtin_memset\000"
 3413      696C7469 
 3413      6E5F6D65 
 3413      6D736574 
 3413      00
 3414              	.LASF40:
 3415 010a 70426974 		.ascii	"pBitRevTable\000"
 3415      52657654 
 3415      61626C65 
 3415      00
 3416              	.LASF17:
 3417 0117 75696E74 		.ascii	"uint8_t\000"
 3417      385F7400 
 3418              	.LASF44:
 3419 011f 6164635F 		.ascii	"adc_buffer\000"
 3419      62756666 
 3419      657200
 3420              	.LASF81:
 3421 012a 6D61675F 		.ascii	"mag_k\000"
 3421      6B00
 3422              	.LASF69:
 3423 0130 7370695F 		.ascii	"spi_transmit\000"
 3423      7472616E 
 3423      736D6974 
 3423      00
 3424              	.LASF95:
 3425 013d 2F686F6D 		.ascii	"/home/umesh_adwait/sensor_ppg\000"
 3425      652F756D 
 3425      6573685F 
 3425      61647761 
 3425      69742F73 
 3426              	.LASF87:
 3427 015b 5F5F6165 		.ascii	"__aeabi_fsub\000"
 3427      6162695F 
 3427      66737562 
 3427      00
 3428              	.LASF0:
 3429 0168 666C6F61 		.ascii	"float\000"
ARM GAS  /tmp/ccAKwby4.s 			page 68


 3429      7400
 3430              	.LASF60:
 3431 016e 6666745F 		.ascii	"fft_inst\000"
 3431      696E7374 
 3431      00
 3432              	.LASF39:
 3433 0177 70547769 		.ascii	"pTwiddle\000"
 3433      64646C65 
 3433      00
 3434              	.LASF83:
 3435 0180 74656D70 		.ascii	"temp\000"
 3435      00
 3436              	.LASF14:
 3437 0185 6C6F6E67 		.ascii	"long long int\000"
 3437      206C6F6E 
 3437      6720696E 
 3437      7400
 3438              	.LASF84:
 3439 0193 5F5F5245 		.ascii	"__RES\000"
 3439      5300
 3440              	.LASF63:
 3441 0199 6D656D73 		.ascii	"memset\000"
 3441      657400
 3442              	.LASF11:
 3443 01a0 6C6F6E67 		.ascii	"long int\000"
 3443      20696E74 
 3443      00
 3444              	.LASF51:
 3445 01a9 7053504F 		.ascii	"pSPO2_RED\000"
 3445      325F5245 
 3445      4400
 3446              	.LASF35:
 3447 01b3 666C6F61 		.ascii	"float32_t\000"
 3447      7433325F 
 3447      7400
 3448              	.LASF5:
 3449 01bd 5F5F7569 		.ascii	"__uint8_t\000"
 3449      6E74385F 
 3449      7400
 3450              	.LASF12:
 3451 01c7 5F5F7569 		.ascii	"__uint32_t\000"
 3451      6E743332 
 3451      5F7400
 3452              	.LASF23:
 3453 01d2 6C6F6E67 		.ascii	"long double\000"
 3453      20646F75 
 3453      626C6500 
 3454              	.LASF96:
 3455 01de 4453505F 		.ascii	"DSP_process\000"
 3455      70726F63 
 3455      65737300 
 3456              	.LASF86:
 3457 01ea 5F5F6165 		.ascii	"__aeabi_i2f\000"
 3457      6162695F 
 3457      69326600 
 3458              	.LASF91:
 3459 01f6 5F5F6165 		.ascii	"__aeabi_ui2f\000"
ARM GAS  /tmp/ccAKwby4.s 			page 69


 3459      6162695F 
 3459      75693266 
 3459      00
 3460              	.LASF92:
 3461 0203 5F5F6165 		.ascii	"__aeabi_f2uiz\000"
 3461      6162695F 
 3461      66327569 
 3461      7A00
 3462              	.LASF6:
 3463 0211 756E7369 		.ascii	"unsigned char\000"
 3463      676E6564 
 3463      20636861 
 3463      7200
 3464              	.LASF85:
 3465 021f 5F5F4152 		.ascii	"__ARG1\000"
 3465      473100
 3466              	.LASF77:
 3467 0226 585F436C 		.ascii	"X_Clock_Init\000"
 3467      6F636B5F 
 3467      496E6974 
 3467      00
 3468              	.LASF64:
 3469 0233 61726D5F 		.ascii	"arm_max_q15\000"
 3469      6D61785F 
 3469      71313500 
 3470              	.LASF3:
 3471 023f 7369676E 		.ascii	"signed char\000"
 3471      65642063 
 3471      68617200 
 3472              	.LASF15:
 3473 024b 6C6F6E67 		.ascii	"long long unsigned int\000"
 3473      206C6F6E 
 3473      6720756E 
 3473      7369676E 
 3473      65642069 
 3474              	.LASF76:
 3475 0262 7370695F 		.ascii	"spi_init\000"
 3475      696E6974 
 3475      00
 3476              	.LASF21:
 3477 026b 75696E74 		.ascii	"uint32_t\000"
 3477      33325F74 
 3477      00
 3478              	.LASF36:
 3479 0274 6666744C 		.ascii	"fftLen\000"
 3479      656E00
 3480              	.LASF19:
 3481 027b 75696E74 		.ascii	"uint16_t\000"
 3481      31365F74 
 3481      00
 3482              	.LASF70:
 3483 0284 5F75735F 		.ascii	"_us_delay\000"
 3483      64656C61 
 3483      7900
 3484              	.LASF58:
 3485 028e 68725F76 		.ascii	"hr_values\000"
 3485      616C7565 
ARM GAS  /tmp/ccAKwby4.s 			page 70


 3485      7300
 3486              	.LASF4:
 3487 0298 5F5F696E 		.ascii	"__int8_t\000"
 3487      74385F74 
 3487      00
 3488              	.LASF41:
 3489 02a1 74776964 		.ascii	"twidCoefModifier\000"
 3489      436F6566 
 3489      4D6F6469 
 3489      66696572 
 3489      00
 3490              	.LASF24:
 3491 02b2 63686172 		.ascii	"char\000"
 3491      00
 3492              	.LASF50:
 3493 02b7 7053504F 		.ascii	"pSPO2_IR\000"
 3493      325F4952 
 3493      00
 3494              	.LASF20:
 3495 02c0 696E7433 		.ascii	"int32_t\000"
 3495      325F7400 
 3496              	.LASF75:
 3497 02c8 54494D32 		.ascii	"TIM2_Init\000"
 3497      5F496E69 
 3497      7400
 3498              	.LASF9:
 3499 02d2 73686F72 		.ascii	"short unsigned int\000"
 3499      7420756E 
 3499      7369676E 
 3499      65642069 
 3499      6E7400
 3500              	.LASF18:
 3501 02e5 696E7431 		.ascii	"int16_t\000"
 3501      365F7400 
 3502              	.LASF46:
 3503 02ed 5F426F6F 		.ascii	"_Bool\000"
 3503      6C00
 3504              	.LASF67:
 3505 02f3 61726D5F 		.ascii	"arm_shift_q15\000"
 3505      73686966 
 3505      745F7131 
 3505      3500
 3506              	.LASF1:
 3507 0301 756E7369 		.ascii	"unsigned int\000"
 3507      676E6564 
 3507      20696E74 
 3507      00
 3508              	.LASF62:
 3509 030e 6C6F6766 		.ascii	"logf\000"
 3509      00
 3510              	.LASF65:
 3511 0313 61726D5F 		.ascii	"arm_cmplx_mag_q15\000"
 3511      636D706C 
 3511      785F6D61 
 3511      675F7131 
 3511      3500
 3512              	.LASF43:
ARM GAS  /tmp/ccAKwby4.s 			page 71


 3513 0325 61726D5F 		.ascii	"arm_cfft_radix4_instance_q15\000"
 3513      63666674 
 3513      5F726164 
 3513      6978345F 
 3513      696E7374 
 3514              	.LASF49:
 3515 0342 70505047 		.ascii	"pPPG_Sample\000"
 3515      5F53616D 
 3515      706C6500 
 3516              	.LASF74:
 3517 034e 6164635F 		.ascii	"adc_init_cont\000"
 3517      696E6974 
 3517      5F636F6E 
 3517      7400
 3518              	.LASF13:
 3519 035c 6C6F6E67 		.ascii	"long unsigned int\000"
 3519      20756E73 
 3519      69676E65 
 3519      6420696E 
 3519      7400
 3520              	.LASF29:
 3521 036e 41524D5F 		.ascii	"ARM_MATH_SIZE_MISMATCH\000"
 3521      4D415448 
 3521      5F53495A 
 3521      455F4D49 
 3521      534D4154 
 3522              	.LASF25:
 3523 0385 646F7562 		.ascii	"double\000"
 3523      6C6500
 3524              	.LASF68:
 3525 038c 61726D5F 		.ascii	"arm_mean_q15\000"
 3525      6D65616E 
 3525      5F713135 
 3525      00
 3526              	.LASF61:
 3527 0399 49666674 		.ascii	"Ifft_inst\000"
 3527      5F696E73 
 3527      7400
 3528              	.LASF45:
 3529 03a3 4143435F 		.ascii	"ACC_COMP\000"
 3529      434F4D50 
 3529      00
 3530              	.LASF79:
 3531 03ac 72656669 		.ascii	"refined_freq\000"
 3531      6E65645F 
 3531      66726571 
 3531      00
 3532              	.LASF10:
 3533 03b9 5F5F696E 		.ascii	"__int32_t\000"
 3533      7433325F 
 3533      7400
 3534              	.LASF38:
 3535 03c3 62697452 		.ascii	"bitReverseFlag\000"
 3535      65766572 
 3535      7365466C 
 3535      616700
 3536              	.LASF27:
ARM GAS  /tmp/ccAKwby4.s 			page 72


 3537 03d2 41524D5F 		.ascii	"ARM_MATH_ARGUMENT_ERROR\000"
 3537      4D415448 
 3537      5F415247 
 3537      554D454E 
 3537      545F4552 
 3538              	.LASF7:
 3539 03ea 5F5F696E 		.ascii	"__int16_t\000"
 3539      7431365F 
 3539      7400
 3540              	.LASF32:
 3541 03f4 41524D5F 		.ascii	"ARM_MATH_TEST_FAILURE\000"
 3541      4D415448 
 3541      5F544553 
 3541      545F4641 
 3541      494C5552 
 3542              	.LASF89:
 3543 040a 5F5F6165 		.ascii	"__aeabi_fadd\000"
 3543      6162695F 
 3543      66616464 
 3543      00
 3544              	.LASF47:
 3545 0417 68616D6D 		.ascii	"hamming\000"
 3545      696E6700 
 3546              	.LASF93:
 3547 041f 474E5520 		.ascii	"GNU C11 13.3.1 20240614 -mthumb -mcpu=cortex-m3 -mf"
 3547      43313120 
 3547      31332E33 
 3547      2E312032 
 3547      30323430 
 3548 0452 6C6F6174 		.ascii	"loat-abi=soft -march=armv7-m -g -Os -std=c11 -fno-c"
 3548      2D616269 
 3548      3D736F66 
 3548      74202D6D 
 3548      61726368 
 3549 0485 6F6D6D6F 		.ascii	"ommon\000"
 3549      6E00
 3550              	.LASF57:
 3551 048b 636F6E66 		.ascii	"confidence\000"
 3551      6964656E 
 3551      636500
 3552              	.LASF66:
 3553 0496 61726D5F 		.ascii	"arm_cfft_radix4_q15\000"
 3553      63666674 
 3553      5F726164 
 3553      6978345F 
 3553      71313500 
 3554              	.LASF59:
 3555 04aa 73616D70 		.ascii	"sampleMean\000"
 3555      6C654D65 
 3555      616E00
 3556              	.LASF90:
 3557 04b5 5F5F6165 		.ascii	"__aeabi_fdiv\000"
 3557      6162695F 
 3557      66646976 
 3557      00
 3558              	.LASF82:
 3559 04c2 6D61675F 		.ascii	"mag_kp1\000"
ARM GAS  /tmp/ccAKwby4.s 			page 73


 3559      6B703100 
 3560              	.LASF28:
 3561 04ca 41524D5F 		.ascii	"ARM_MATH_LENGTH_ERROR\000"
 3561      4D415448 
 3561      5F4C454E 
 3561      4754485F 
 3561      4552524F 
 3562              	.LASF94:
 3563 04e0 7372632F 		.ascii	"src/main.c\000"
 3563      6D61696E 
 3563      2E6300
 3564              	.LASF48:
 3565 04eb 5F5F6572 		.ascii	"__errno\000"
 3565      726E6F00 
 3566              		.ident	"GCC: (Arm GNU Toolchain 13.3.Rel1 (Build arm-13.24)) 13.3.1 20240614"
ARM GAS  /tmp/ccAKwby4.s 			page 74


DEFINED SYMBOLS
                            *ABS*:00000000 main.c
     /tmp/ccAKwby4.s:24     .text:00000000 $t
     /tmp/ccAKwby4.s:30     .text:00000000 DSP_process
     /tmp/ccAKwby4.s:486    .text:000001f8 $d
     /tmp/ccAKwby4.s:502    .text.startup:00000000 $t
     /tmp/ccAKwby4.s:508    .text.startup:00000000 main
     /tmp/ccAKwby4.s:586    .text.startup:0000005c $d
     /tmp/ccAKwby4.s:924    .bss:00000624 Ifft_inst
     /tmp/ccAKwby4.s:895    .bss:00000404 fft_inst
     /tmp/ccAKwby4.s:890    .bss:00000400 sampleMean
     /tmp/ccAKwby4.s:920    .bss:00000620 hr_values
     /tmp/ccAKwby4.s:916    .bss:0000061e confidence
     /tmp/ccAKwby4.s:903    .bss:00000614 noisefloor
     /tmp/ccAKwby4.s:928    .bss:00000634 mean_value
     /tmp/ccAKwby4.s:908    .bss:00000618 maxIndex
     /tmp/ccAKwby4.s:912    .bss:0000061c maxVal
     /tmp/ccAKwby4.s:886    .bss:00000000 input
     /tmp/ccAKwby4.s:871    .data:00000200 pSPO2_RED
     /tmp/ccAKwby4.s:875    .data:00000204 pSPO2_IR
     /tmp/ccAKwby4.s:879    .data:00000208 pPPG_Sample
     /tmp/ccAKwby4.s:932    .bss:00000638 __errno
     /tmp/ccAKwby4.s:612    .data:00000000 hamming
     /tmp/ccAKwby4.s:608    .data:00000000 $d
     /tmp/ccAKwby4.s:882    .bss:00000000 $d
     /tmp/ccAKwby4.s:899    .bss:00000414 mag

UNDEFINED SYMBOLS
__aeabi_i2f
__aeabi_fsub
__aeabi_fmul
__aeabi_fadd
__aeabi_fdiv
__aeabi_ui2f
arm_mean_q15
arm_shift_q15
arm_cfft_radix4_q15
arm_cmplx_mag_q15
memset
arm_max_q15
logf
adc_buffer
__aeabi_f2uiz
X_Clock_Init
spi_init
TIM2_Init
adc_init_cont
led_init
arm_cfft_radix4_init_q15
start_process
_us_delay
spi_transmit
ACC_COMP
