ARM GAS  /tmp/cctFGGIe.s 			page 1


   1              		.cpu cortex-m3
   2              		.arch armv7-m
   3              		.fpu softvfp
   4              		.eabi_attribute 20, 1
   5              		.eabi_attribute 21, 1
   6              		.eabi_attribute 23, 3
   7              		.eabi_attribute 24, 1
   8              		.eabi_attribute 25, 1
   9              		.eabi_attribute 26, 1
  10              		.eabi_attribute 30, 4
  11              		.eabi_attribute 34, 1
  12              		.eabi_attribute 18, 4
  13              		.file	"main.c"
  14              		.text
  15              	.Ltext0:
  16              		.cfi_sections	.debug_frame
  17              		.file 1 "src/main.c"
  18              		.global	__aeabi_i2f
  19              		.global	__aeabi_fsub
  20              		.global	__aeabi_fmul
  21              		.global	__aeabi_fadd
  22              		.global	__aeabi_fdiv
  23              		.global	__aeabi_ui2f
  24              		.align	1
  25              		.global	DSP_process
  26              		.syntax unified
  27              		.thumb
  28              		.thumb_func
  29              		.type	DSP_process, %function
  30              	DSP_process:
  31              	.LFB122:
   1:src/main.c    **** /**
   2:src/main.c    ****  * @file    main.c
   3:src/main.c    ****  * @brief   Test application entry point for connectHeart peripheral and DSP library STM32 project
   4:src/main.c    ****  * @author  Umesh Puri
   5:src/main.c    ****  * @date    2025-06-02
   6:src/main.c    ****  * @version 1.0
   7:src/main.c    ****  *
   8:src/main.c    ****  * This is a simple test main file for initial development and verification
   9:src/main.c    ****  * of connectHeart peripherals and DSP library functionality on STM32F103.
  10:src/main.c    ****  *
  11:src/main.c    ****  * @license MIT License
  12:src/main.c    ****  * Copyright (c) 2025 Umesh
  13:src/main.c    ****  */
  14:src/main.c    **** 
  15:src/main.c    **** #include "stm32f1xx.h"
  16:src/main.c    **** #include "core_cm3.h"
  17:src/main.c    **** #include "arm_math.h"
  18:src/main.c    **** #include "string.h"
  19:src/main.c    **** #include <stdint.h>
  20:src/main.c    **** #include <stdio.h>
  21:src/main.c    **** 
  22:src/main.c    **** #include "HSE_CLK.h"
  23:src/main.c    **** #include "delay.h"
  24:src/main.c    **** #include "spi.h"
  25:src/main.c    **** #include "adc.h"
  26:src/main.c    **** #include "ledconf.h"
ARM GAS  /tmp/cctFGGIe.s 			page 2


  27:src/main.c    **** #include "hamming.h"
  28:src/main.c    **** 
  29:src/main.c    **** #define FFT_SIZE 512
  30:src/main.c    **** #define PPG_SAMP (&adc_buffer[0])
  31:src/main.c    **** #define SPO2_IR (&adc_buffer[1])
  32:src/main.c    **** #define SPO2_RED (&adc_buffer[2])
  33:src/main.c    **** 
  34:src/main.c    **** int __errno = 0;
  35:src/main.c    **** 
  36:src/main.c    **** int16_t *pPPG_Sample = PPG_SAMP; // pointer for Green
  37:src/main.c    **** int16_t *pSPO2_IR = SPO2_IR;     // pointer for IR
  38:src/main.c    **** int16_t *pSPO2_RED = SPO2_RED;   // pointer for RED
  39:src/main.c    **** q15_t input[FFT_SIZE * 2];
  40:src/main.c    **** 
  41:src/main.c    **** static q15_t mag[FFT_SIZE] = {0};
  42:src/main.c    **** 
  43:src/main.c    **** q15_t maxVal = 0;
  44:src/main.c    **** uint32_t maxIndex = 0;
  45:src/main.c    **** q15_t noisefloor = 0;
  46:src/main.c    **** volatile q15_t confidence = 0;
  47:src/main.c    **** volatile float32_t hr_values = 0.0f;
  48:src/main.c    **** q15_t sampleMean = 0;
  49:src/main.c    **** 
  50:src/main.c    **** arm_cfft_radix2_instance_q15 fft_inst;
  51:src/main.c    **** 
  52:src/main.c    **** void DSP_process(void); // DSP_process function prototype
  53:src/main.c    **** 
  54:src/main.c    **** static float32_t quinns_second_estimator_q15(q15_t *input, uint32_t k);
  55:src/main.c    **** 
  56:src/main.c    **** int main(void)
  57:src/main.c    **** {
  58:src/main.c    ****    // Peripheral and process initialization
  59:src/main.c    ****    X_Clock_Init();  // 72MHz CLK
  60:src/main.c    ****    spi_init();      // SPI initialization
  61:src/main.c    ****    TIM2_Init();     // TIM2 Delay initialization
  62:src/main.c    ****    adc_init_cont(); // ADC  initialization
  63:src/main.c    ****    led_init();      // LEDs initialization
  64:src/main.c    **** 
  65:src/main.c    ****    arm_cfft_radix2_init_q15(&fft_inst, FFT_SIZE, 0, 1); // forward FFT
  66:src/main.c    **** 
  67:src/main.c    ****    while (1)
  68:src/main.c    ****    {
  69:src/main.c    ****       if (ACC_COMP)
  70:src/main.c    ****       {
  71:src/main.c    **** 
  72:src/main.c    ****          ACC_COMP = false;
  73:src/main.c    ****          DSP_process(); // call DSP_process
  74:src/main.c    **** 
  75:src/main.c    ****          // after completion of DSP start the process again
  76:src/main.c    ****          start_process();
  77:src/main.c    ****       }
  78:src/main.c    ****       else
  79:src/main.c    ****       {
  80:src/main.c    **** 
  81:src/main.c    ****          _us_delay(50);
  82:src/main.c    ****          spi_transmit(hr_values, confidence); // display Heart Rate and confidence
  83:src/main.c    ****          _us_delay(50);
ARM GAS  /tmp/cctFGGIe.s 			page 3


  84:src/main.c    ****       }
  85:src/main.c    ****    }
  86:src/main.c    ****    return 0;
  87:src/main.c    **** }
  88:src/main.c    **** 
  89:src/main.c    **** void DSP_process(void)
  90:src/main.c    **** {
  32              		.loc 1 90 1 view -0
  33              		.cfi_startproc
  34              		@ args = 0, pretend = 0, frame = 0
  35              		@ frame_needed = 0, uses_anonymous_args = 0
  91:src/main.c    **** 
  92:src/main.c    ****    for (uint16_t i = 0; i < FFT_SIZE / 2; i++)
  36              		.loc 1 92 4 view .LVU1
  37              	.LBB2:
  38              		.loc 1 92 9 view .LVU2
  39              	.LVL0:
  40              		.loc 1 92 27 discriminator 1 view .LVU3
  41              	.LBE2:
  90:src/main.c    **** 
  42              		.loc 1 90 1 is_stmt 0 view .LVU4
  43 0000 2DE9F84F 		push	{r3, r4, r5, r6, r7, r8, r9, r10, fp, lr}
  44              		.cfi_def_cfa_offset 40
  45              		.cfi_offset 3, -40
  46              		.cfi_offset 4, -36
  47              		.cfi_offset 5, -32
  48              		.cfi_offset 6, -28
  49              		.cfi_offset 7, -24
  50              		.cfi_offset 8, -20
  51              		.cfi_offset 9, -16
  52              		.cfi_offset 10, -12
  53              		.cfi_offset 11, -8
  54              		.cfi_offset 14, -4
  90:src/main.c    **** 
  55              		.loc 1 90 1 view .LVU5
  56 0004 0023     		movs	r3, #0
  57 0006 7C4E     		ldr	r6, .L27
  58              	.LBB3:
  93:src/main.c    ****    {
  94:src/main.c    ****       input[i << 1] = (adc_buffer[i * 3]);
  95:src/main.c    ****       input[(i << 1) + 1] = 0;
  59              		.loc 1 95 27 view .LVU6
  60 0008 1946     		mov	r1, r3
  61              	.LBE3:
  90:src/main.c    **** 
  62              		.loc 1 90 1 view .LVU7
  63 000a 3246     		mov	r2, r6
  64 000c 3446     		mov	r4, r6
  65              	.LBB4:
  94:src/main.c    ****       input[(i << 1) + 1] = 0;
  66              		.loc 1 94 34 view .LVU8
  67 000e 7B4D     		ldr	r5, .L27+4
  68              	.LVL1:
  69              	.L2:
  94:src/main.c    ****       input[(i << 1) + 1] = 0;
  70              		.loc 1 94 7 is_stmt 1 view .LVU9
  94:src/main.c    ****       input[(i << 1) + 1] = 0;
ARM GAS  /tmp/cctFGGIe.s 			page 4


  71              		.loc 1 94 34 is_stmt 0 view .LVU10
  72 0010 35F81300 		ldrh	r0, [r5, r3, lsl #1]
  92:src/main.c    ****    {
  73              		.loc 1 92 27 discriminator 1 view .LVU11
  74 0014 0333     		adds	r3, r3, #3
  75              	.LVL2:
  92:src/main.c    ****    {
  76              		.loc 1 92 27 discriminator 1 view .LVU12
  77 0016 B3F5407F 		cmp	r3, #768
  94:src/main.c    ****       input[(i << 1) + 1] = 0;
  78              		.loc 1 94 21 view .LVU13
  79 001a 1080     		strh	r0, [r2]	@ movhi
  80              		.loc 1 95 7 is_stmt 1 view .LVU14
  81              		.loc 1 95 27 is_stmt 0 view .LVU15
  82 001c 5180     		strh	r1, [r2, #2]	@ movhi
  92:src/main.c    ****    {
  83              		.loc 1 92 44 is_stmt 1 discriminator 3 view .LVU16
  84              	.LVL3:
  92:src/main.c    ****    {
  85              		.loc 1 92 27 discriminator 1 view .LVU17
  86 001e 02F10402 		add	r2, r2, #4
  87 0022 F5D1     		bne	.L2
  88              	.LBE4:
  96:src/main.c    ****    }
  97:src/main.c    **** 
  98:src/main.c    ****    // ZERO PADDING to 512
  99:src/main.c    ****    memset(&input[FFT_SIZE], 0, ((FFT_SIZE)) * sizeof(q15_t));
  89              		.loc 1 99 4 view .LVU18
  90              	.LBB5:
  91              	.LBB6:
 100:src/main.c    ****    // get mean of input only 256 * 2 interleved position
 101:src/main.c    ****    arm_mean_q15(&input[0], FFT_SIZE, &sampleMean);
 102:src/main.c    **** 
 103:src/main.c    ****    // remove dc component
 104:src/main.c    ****    for (uint16_t i = 0; i < FFT_SIZE; i++)
 105:src/main.c    ****    {
 106:src/main.c    ****       input[i << 1] = (i < FFT_SIZE / 2) ? input[i << 1] - (sampleMean << 1) : 0; // compensate the
  92              		.loc 1 106 72 is_stmt 0 discriminator 1 view .LVU19
  93 0024 0025     		movs	r5, #0
  94              	.LBE6:
  95              	.LBE5:
  99:src/main.c    ****    // get mean of input only 256 * 2 interleved position
  96              		.loc 1 99 4 view .LVU20
  97 0026 4FF48062 		mov	r2, #1024
  98 002a 0021     		movs	r1, #0
  99 002c 7448     		ldr	r0, .L27+8
 100 002e FFF7FEFF 		bl	memset
 101              	.LVL4:
 101:src/main.c    **** 
 102              		.loc 1 101 4 is_stmt 1 view .LVU21
 103 0032 744A     		ldr	r2, .L27+12
 104 0034 4FF40071 		mov	r1, #512
 105 0038 A2F50060 		sub	r0, r2, #2048
 106 003c FFF7FEFF 		bl	arm_mean_q15
 107              	.LVL5:
 104:src/main.c    ****    {
 108              		.loc 1 104 4 view .LVU22
ARM GAS  /tmp/cctFGGIe.s 			page 5


 109              	.LBB13:
 104:src/main.c    ****    {
 110              		.loc 1 104 9 view .LVU23
 104:src/main.c    ****    {
 111              		.loc 1 104 27 discriminator 1 view .LVU24
 112              	.LBB10:
 113              		.loc 1 106 21 is_stmt 0 discriminator 2 view .LVU25
 114 0040 2846     		mov	r0, r5
 115              		.loc 1 106 72 discriminator 1 view .LVU26
 116 0042 B4F80028 		ldrh	r2, [r4, #2048]
 117 0046 7049     		ldr	r1, .L27+16
 118 0048 5200     		lsls	r2, r2, #1
 119 004a 92B2     		uxth	r2, r2
 120              	.LVL6:
 121              	.L4:
 122              		.loc 1 106 7 is_stmt 1 view .LVU27
 123              		.loc 1 106 21 is_stmt 0 view .LVU28
 124 004c FF2D     		cmp	r5, #255
 125              		.loc 1 106 21 discriminator 2 view .LVU29
 126 004e 8CBF     		ite	hi
 127 0050 0023     		movhi	r3, #0
 107:src/main.c    ****       int32_t temp = (int32_t)input[i << 1] * hamming[i];                         // Q15 * Q15 = Q3
 128              		.loc 1 107 7 is_stmt 1 view .LVU30
 106:src/main.c    ****       int32_t temp = (int32_t)input[i << 1] * hamming[i];                         // Q15 * Q15 = Q3
 129              		.loc 1 106 58 is_stmt 0 discriminator 1 view .LVU31
 130 0052 3388     		ldrhls	r3, [r6]
 131              		.loc 1 107 54 view .LVU32
 132 0054 31F9027B 		ldrsh	r7, [r1], #2
 106:src/main.c    ****       int32_t temp = (int32_t)input[i << 1] * hamming[i];                         // Q15 * Q15 = Q3
 133              		.loc 1 106 58 discriminator 1 view .LVU33
 134 0058 9CBF     		itt	ls
 135 005a 9B1A     		subls	r3, r3, r2
 106:src/main.c    ****       int32_t temp = (int32_t)input[i << 1] * hamming[i];                         // Q15 * Q15 = Q3
 136              		.loc 1 106 21 discriminator 1 view .LVU34
 137 005c 1BB2     		sxthls	r3, r3
 138              	.LVL7:
 108:src/main.c    ****       input[i << 1] = (q15_t)__SSAT((temp >> 15), 16);                            // Back to Q15 an
 139              		.loc 1 108 7 is_stmt 1 view .LVU35
 140              	.LBB7:
 141              		.loc 1 108 30 view .LVU36
 142              		.loc 1 108 30 view .LVU37
 143              	.LBE7:
 107:src/main.c    ****       int32_t temp = (int32_t)input[i << 1] * hamming[i];                         // Q15 * Q15 = Q3
 144              		.loc 1 107 15 is_stmt 0 view .LVU38
 145 005e 7B43     		muls	r3, r7, r3
 146              	.LVL8:
 107:src/main.c    ****       int32_t temp = (int32_t)input[i << 1] * hamming[i];                         // Q15 * Q15 = Q3
 147              		.loc 1 107 15 view .LVU39
 148              	.LBE10:
 104:src/main.c    ****    {
 149              		.loc 1 104 27 discriminator 1 view .LVU40
 150 0060 0135     		adds	r5, r5, #1
 151              	.LVL9:
 104:src/main.c    ****    {
 152              		.loc 1 104 27 discriminator 1 view .LVU41
 153 0062 B5F5007F 		cmp	r5, #512
 154              	.LBB11:
ARM GAS  /tmp/cctFGGIe.s 			page 6


 155              	.LBB8:
 156              		.loc 1 108 30 view .LVU42
 157 0066 4FEAE333 		asr	r3, r3, #15
 158              	.LBE8:
 109:src/main.c    ****       input[(i << 1) + 1] = 0;
 159              		.loc 1 109 27 view .LVU43
 160 006a 7080     		strh	r0, [r6, #2]	@ movhi
 161              	.LBB9:
 108:src/main.c    ****       input[i << 1] = (q15_t)__SSAT((temp >> 15), 16);                            // Back to Q15 an
 162              		.loc 1 108 30 view .LVU44
 163              		.syntax unified
 164              	@ 108 "src/main.c" 1
 165 006c 03F30F03 		ssat r3, #16, r3
 166              	@ 0 "" 2
 167              	.LVL10:
 108:src/main.c    ****       input[i << 1] = (q15_t)__SSAT((temp >> 15), 16);                            // Back to Q15 an
 168              		.loc 1 108 30 is_stmt 1 view .LVU45
 169              		.thumb
 170              		.syntax unified
 171              	.LBE9:
 172              	.LBE11:
 104:src/main.c    ****    {
 173              		.loc 1 104 27 is_stmt 0 discriminator 1 view .LVU46
 174 0070 06F10406 		add	r6, r6, #4
 175              	.LBB12:
 108:src/main.c    ****       input[i << 1] = (q15_t)__SSAT((temp >> 15), 16);                            // Back to Q15 an
 176              		.loc 1 108 23 view .LVU47
 177 0074 26F8043C 		strh	r3, [r6, #-4]	@ movhi
 178              		.loc 1 109 7 is_stmt 1 view .LVU48
 179              	.LBE12:
 104:src/main.c    ****    {
 180              		.loc 1 104 40 discriminator 2 view .LVU49
 181              	.LVL11:
 104:src/main.c    ****    {
 182              		.loc 1 104 27 discriminator 1 view .LVU50
 183 0078 E8D1     		bne	.L4
 184              	.LBE13:
 110:src/main.c    ****    }
 111:src/main.c    **** 
 112:src/main.c    ****    arm_shift_q15(input, 8, input, FFT_SIZE * 2);
 185              		.loc 1 112 4 view .LVU51
 186 007a 5F4A     		ldr	r2, .L27
 187 007c 4FF48063 		mov	r3, #1024
 188              	.LVL12:
 189              		.loc 1 112 4 is_stmt 0 view .LVU52
 190 0080 1046     		mov	r0, r2
 191 0082 0821     		movs	r1, #8
 192 0084 FFF7FEFF 		bl	arm_shift_q15
 193              	.LVL13:
 113:src/main.c    ****    arm_cfft_radix2_q15(&fft_inst, input);
 194              		.loc 1 113 4 is_stmt 1 view .LVU53
 195 0088 5B49     		ldr	r1, .L27
 196 008a 01F60400 		addw	r0, r1, #2052
 197 008e FFF7FEFF 		bl	arm_cfft_radix2_q15
 198              	.LVL14:
 114:src/main.c    ****    arm_cmplx_mag_q15(input, mag, FFT_SIZE);
 199              		.loc 1 114 4 view .LVU54
ARM GAS  /tmp/cctFGGIe.s 			page 7


 200 0092 5E49     		ldr	r1, .L27+20
 201 0094 2A46     		mov	r2, r5
 202 0096 A1F61400 		subw	r0, r1, #2068
 203 009a FFF7FEFF 		bl	arm_cmplx_mag_q15
 204              	.LVL15:
 115:src/main.c    **** 
 116:src/main.c    ****    // get noise floor before removing high bins up from FFT_SIZE/2 since we really dont have true s
 117:src/main.c    ****    arm_mean_q15(&mag[0], FFT_SIZE / 2, &noisefloor);
 205              		.loc 1 117 4 view .LVU55
 206 009e 5C4A     		ldr	r2, .L27+24
 207 00a0 4FF48071 		mov	r1, #256
 208 00a4 A2F58060 		sub	r0, r2, #1024
 209 00a8 FFF7FEFF 		bl	arm_mean_q15
 210              	.LVL16:
 118:src/main.c    **** 
 119:src/main.c    ****    // remove noise component
 120:src/main.c    ****    for (uint16_t i = 0; i < FFT_SIZE; i++)
 211              		.loc 1 120 4 view .LVU56
 212              	.LBB14:
 213              		.loc 1 120 9 view .LVU57
 214              		.loc 1 120 27 discriminator 1 view .LVU58
 215 00ac 5749     		ldr	r1, .L27+20
 121:src/main.c    ****    {
 122:src/main.c    ****       mag[i] = (i < FFT_SIZE / 2) ? mag[i] - noisefloor : 0;
 216              		.loc 1 122 44 is_stmt 0 discriminator 1 view .LVU59
 217 00ae 0022     		movs	r2, #0
 218 00b0 0846     		mov	r0, r1
 219 00b2 B4F8145C 		ldrh	r5, [r4, #3092]
 220              	.LVL17:
 221              	.L6:
 222              		.loc 1 122 7 is_stmt 1 view .LVU60
 223              		.loc 1 122 14 is_stmt 0 view .LVU61
 224 00b6 FF2A     		cmp	r2, #255
 225              		.loc 1 122 14 discriminator 2 view .LVU62
 226 00b8 8CBF     		ite	hi
 227 00ba 0023     		movhi	r3, #0
 228              		.loc 1 122 44 discriminator 1 view .LVU63
 229 00bc 0B88     		ldrhls	r3, [r1]
 120:src/main.c    ****    {
 230              		.loc 1 120 27 discriminator 1 view .LVU64
 231 00be 02F10102 		add	r2, r2, #1
 232              	.LVL18:
 233              		.loc 1 122 44 discriminator 1 view .LVU65
 234 00c2 9CBF     		itt	ls
 235 00c4 5B1B     		subls	r3, r3, r5
 236              		.loc 1 122 14 discriminator 1 view .LVU66
 237 00c6 1BB2     		sxthls	r3, r3
 120:src/main.c    ****    {
 238              		.loc 1 120 27 discriminator 1 view .LVU67
 239 00c8 B2F5007F 		cmp	r2, #512
 240              		.loc 1 122 14 discriminator 4 view .LVU68
 241 00cc 21F8023B 		strh	r3, [r1], #2	@ movhi
 120:src/main.c    ****    {
 242              		.loc 1 120 40 is_stmt 1 discriminator 2 view .LVU69
 243              	.LVL19:
 120:src/main.c    ****    {
 244              		.loc 1 120 27 discriminator 1 view .LVU70
ARM GAS  /tmp/cctFGGIe.s 			page 8


 245 00d0 F1D1     		bne	.L6
 246              	.LBE14:
 123:src/main.c    ****    }
 124:src/main.c    **** 
 125:src/main.c    ****    // Bandpass filtering: zero out low and high frequencies
 126:src/main.c    ****    memset(&mag[0], 0, 4 * sizeof(q15_t));                // zero bins from 0 to 4
 247              		.loc 1 126 4 view .LVU71
 248 00d2 0025     		movs	r5, #0
 127:src/main.c    ****    memset(&mag[50], 0, (FFT_SIZE - 50) * sizeof(q15_t)); // zero bins 50to end
 249              		.loc 1 127 4 is_stmt 0 view .LVU72
 250 00d4 4FF46772 		mov	r2, #924
 251 00d8 2946     		mov	r1, r5
 126:src/main.c    ****    memset(&mag[50], 0, (FFT_SIZE - 50) * sizeof(q15_t)); // zero bins 50to end
 252              		.loc 1 126 4 view .LVU73
 253 00da C4F81458 		str	r5, [r4, #2068]	@ unaligned
 254 00de 4560     		str	r5, [r0, #4]	@ unaligned
 255              		.loc 1 127 4 is_stmt 1 view .LVU74
 256 00e0 4C48     		ldr	r0, .L27+28
 257 00e2 FFF7FEFF 		bl	memset
 258              	.LVL20:
 128:src/main.c    **** 
 129:src/main.c    ****    arm_max_q15(mag, FFT_SIZE / 2, &maxVal, &maxIndex);
 259              		.loc 1 129 4 view .LVU75
 260 00e6 4C4B     		ldr	r3, .L27+32
 261 00e8 4FF48071 		mov	r1, #256
 262 00ec 1A1D     		adds	r2, r3, #4
 263 00ee A3F20440 		subw	r0, r3, #1028
 264 00f2 FFF7FEFF 		bl	arm_max_q15
 265              	.LVL21:
 130:src/main.c    **** 
 131:src/main.c    ****    confidence = (noisefloor > 0) ? maxVal / noisefloor : 0;
 266              		.loc 1 131 4 view .LVU76
 267              		.loc 1 131 29 is_stmt 0 view .LVU77
 268 00f6 B4F9143C 		ldrsh	r3, [r4, #3092]
 269              		.loc 1 131 15 view .LVU78
 270 00fa AB42     		cmp	r3, r5
 271              		.loc 1 131 43 discriminator 1 view .LVU79
 272 00fc C2BF     		ittt	gt
 273 00fe B4F91C5C 		ldrshgt	r5, [r4, #3100]
 274 0102 95FBF3F5 		sdivgt	r5, r5, r3
 275              		.loc 1 131 15 discriminator 1 view .LVU80
 276 0106 2DB2     		sxthgt	r5, r5
 277              		.loc 1 131 15 discriminator 4 view .LVU81
 278 0108 A4F81E5C 		strh	r5, [r4, #3102]	@ movhi
 132:src/main.c    **** 
 133:src/main.c    ****    if (confidence < 10 || maxVal < (q15_t)300) // threshold confidence
 279              		.loc 1 133 4 is_stmt 1 view .LVU82
 280              		.loc 1 133 19 is_stmt 0 view .LVU83
 281 010c B4F81E3C 		ldrh	r3, [r4, #3102]
 282 0110 1BB2     		sxth	r3, r3
 283              		.loc 1 133 7 view .LVU84
 284 0112 092B     		cmp	r3, #9
 285 0114 04DD     		ble	.L11
 286              		.loc 1 133 24 discriminator 1 view .LVU85
 287 0116 B4F91C3C 		ldrsh	r3, [r4, #3100]
 288 011a B3F5967F 		cmp	r3, #300
 289 011e 03DA     		bge	.L9
ARM GAS  /tmp/cctFGGIe.s 			page 9


 290              	.L11:
 134:src/main.c    ****    {
 135:src/main.c    ****       hr_values = 0;
 136:src/main.c    ****       return;
 137:src/main.c    ****    }
 138:src/main.c    **** 
 139:src/main.c    ****    // Zero
 140:src/main.c    ****    if (maxIndex != 0 && maxIndex != FFT_SIZE - 1)
 141:src/main.c    ****    {
 142:src/main.c    **** 
 143:src/main.c    ****       float32_t delta, refined_freq;
 144:src/main.c    ****       float32_t mag_km1 = (mag[maxIndex - 1]);
 145:src/main.c    ****       mag_km1 = (mag_km1 <= 0) ? 0.001f : mag_km1;
 146:src/main.c    ****       float32_t mag_k = (mag[maxIndex]);
 147:src/main.c    ****       mag_k = (mag_k <= 0) ? 0.001f : mag_k;
 148:src/main.c    ****       float32_t mag_kp1 = (mag[maxIndex + 1]);
 149:src/main.c    ****       mag_kp1 = (mag_kp1 <= 0) ? 0.001f : mag_kp1;
 150:src/main.c    **** 
 151:src/main.c    ****       // delta = (mag_km1 - mag_kp1) / (2 * (mag_km1 - 2 * mag_k + mag_kp1));
 152:src/main.c    **** #if 1
 153:src/main.c    **** 
 154:src/main.c    ****       // log-parablolic interpolation
 155:src/main.c    ****       delta = 0.5f * (logf(mag_km1) - logf(mag_kp1)) / (logf(mag_km1) - 2 * logf(mag_k) + logf(mag_
 156:src/main.c    **** 
 157:src/main.c    ****       refined_freq = ((float32_t)maxIndex + delta) * 0.108f;
 158:src/main.c    ****       hr_values = (60.00f) * refined_freq;
 159:src/main.c    **** #else
 160:src/main.c    ****       // Quinn's estimator-based interpolation
 161:src/main.c    ****       delta = quinns_second_estimator_q15(input, maxIndex);
 162:src/main.c    ****       refined_freq = ((float32_t)maxIndex + delta) * 0.108f;
 163:src/main.c    ****       hr_values = 60.0f * refined_freq;
 164:src/main.c    **** #endif
 165:src/main.c    ****    }
 166:src/main.c    ****    else
 167:src/main.c    ****    {
 168:src/main.c    ****       hr_values = 0;
 291              		.loc 1 168 7 is_stmt 1 view .LVU86
 292              		.loc 1 168 17 is_stmt 0 view .LVU87
 293 0120 0023     		movs	r3, #0
 294 0122 C4F8203C 		str	r3, [r4, #3104]	@ float
 169:src/main.c    ****       return;
 295              		.loc 1 169 7 is_stmt 1 view .LVU88
 296 0126 5EE0     		b	.L1
 297              	.L9:
 140:src/main.c    ****    {
 298              		.loc 1 140 4 view .LVU89
 140:src/main.c    ****    {
 299              		.loc 1 140 17 is_stmt 0 view .LVU90
 300 0128 D4F8185C 		ldr	r5, [r4, #3096]
 140:src/main.c    ****    {
 301              		.loc 1 140 7 view .LVU91
 302 012c 002D     		cmp	r5, #0
 303 012e F7D0     		beq	.L11
 140:src/main.c    ****    {
 304              		.loc 1 140 22 discriminator 1 view .LVU92
 305 0130 40F2FF13 		movw	r3, #511
 306 0134 9D42     		cmp	r5, r3
ARM GAS  /tmp/cctFGGIe.s 			page 10


 307 0136 F3D0     		beq	.L11
 308              	.LBB15:
 143:src/main.c    ****       float32_t mag_km1 = (mag[maxIndex - 1]);
 309              		.loc 1 143 7 is_stmt 1 view .LVU93
 144:src/main.c    ****       mag_km1 = (mag_km1 <= 0) ? 0.001f : mag_km1;
 310              		.loc 1 144 7 view .LVU94
 144:src/main.c    ****       mag_km1 = (mag_km1 <= 0) ? 0.001f : mag_km1;
 311              		.loc 1 144 31 is_stmt 0 view .LVU95
 312 0138 04EB4503 		add	r3, r4, r5, lsl #1
 313 013c B3F91208 		ldrsh	r0, [r3, #2066]
 314              	.LVL22:
 145:src/main.c    ****       float32_t mag_k = (mag[maxIndex]);
 315              		.loc 1 145 7 is_stmt 1 view .LVU96
 145:src/main.c    ****       float32_t mag_k = (mag[maxIndex]);
 316              		.loc 1 145 41 is_stmt 0 view .LVU97
 317 0140 0028     		cmp	r0, #0
 318 0142 52DD     		ble	.L18
 144:src/main.c    ****       mag_km1 = (mag_km1 <= 0) ? 0.001f : mag_km1;
 319              		.loc 1 144 17 view .LVU98
 320 0144 FFF7FEFF 		bl	__aeabi_i2f
 321              	.LVL23:
 144:src/main.c    ****       mag_km1 = (mag_km1 <= 0) ? 0.001f : mag_km1;
 322              		.loc 1 144 17 view .LVU99
 323 0148 0746     		mov	r7, r0
 324              	.L12:
 325              	.LVL24:
 146:src/main.c    ****       mag_k = (mag_k <= 0) ? 0.001f : mag_k;
 326              		.loc 1 146 7 is_stmt 1 view .LVU100
 146:src/main.c    ****       mag_k = (mag_k <= 0) ? 0.001f : mag_k;
 327              		.loc 1 146 29 is_stmt 0 view .LVU101
 328 014a 04EB4503 		add	r3, r4, r5, lsl #1
 329 014e B3F91408 		ldrsh	r0, [r3, #2068]
 330              	.LVL25:
 147:src/main.c    ****       float32_t mag_kp1 = (mag[maxIndex + 1]);
 331              		.loc 1 147 7 is_stmt 1 view .LVU102
 147:src/main.c    ****       float32_t mag_kp1 = (mag[maxIndex + 1]);
 332              		.loc 1 147 37 is_stmt 0 view .LVU103
 333 0152 0028     		cmp	r0, #0
 334 0154 4BDD     		ble	.L19
 146:src/main.c    ****       mag_k = (mag_k <= 0) ? 0.001f : mag_k;
 335              		.loc 1 146 17 view .LVU104
 336 0156 FFF7FEFF 		bl	__aeabi_i2f
 337              	.LVL26:
 146:src/main.c    ****       mag_k = (mag_k <= 0) ? 0.001f : mag_k;
 338              		.loc 1 146 17 view .LVU105
 339 015a 8046     		mov	r8, r0
 340              	.L13:
 341              	.LVL27:
 148:src/main.c    ****       mag_kp1 = (mag_kp1 <= 0) ? 0.001f : mag_kp1;
 342              		.loc 1 148 7 is_stmt 1 view .LVU106
 148:src/main.c    ****       mag_kp1 = (mag_kp1 <= 0) ? 0.001f : mag_kp1;
 343              		.loc 1 148 31 is_stmt 0 view .LVU107
 344 015c 04EB4503 		add	r3, r4, r5, lsl #1
 345 0160 B3F91608 		ldrsh	r0, [r3, #2070]
 346              	.LVL28:
 149:src/main.c    **** 
 347              		.loc 1 149 7 is_stmt 1 view .LVU108
ARM GAS  /tmp/cctFGGIe.s 			page 11


 149:src/main.c    **** 
 348              		.loc 1 149 41 is_stmt 0 view .LVU109
 349 0164 0028     		cmp	r0, #0
 350 0166 45DD     		ble	.L20
 148:src/main.c    ****       mag_kp1 = (mag_kp1 <= 0) ? 0.001f : mag_kp1;
 351              		.loc 1 148 17 view .LVU110
 352 0168 FFF7FEFF 		bl	__aeabi_i2f
 353              	.LVL29:
 148:src/main.c    ****       mag_kp1 = (mag_kp1 <= 0) ? 0.001f : mag_kp1;
 354              		.loc 1 148 17 view .LVU111
 355 016c 0646     		mov	r6, r0
 356              	.L14:
 357              	.LVL30:
 155:src/main.c    **** 
 358              		.loc 1 155 7 is_stmt 1 view .LVU112
 155:src/main.c    **** 
 359              		.loc 1 155 23 is_stmt 0 view .LVU113
 360 016e 3846     		mov	r0, r7
 361 0170 FFF7FEFF 		bl	logf
 362              	.LVL31:
 363 0174 8146     		mov	r9, r0
 155:src/main.c    **** 
 364              		.loc 1 155 39 discriminator 1 view .LVU114
 365 0176 3046     		mov	r0, r6
 366 0178 FFF7FEFF 		bl	logf
 367              	.LVL32:
 368 017c 8346     		mov	fp, r0
 155:src/main.c    **** 
 369              		.loc 1 155 57 discriminator 2 view .LVU115
 370 017e 3846     		mov	r0, r7
 371 0180 FFF7FEFF 		bl	logf
 372              	.LVL33:
 373 0184 0746     		mov	r7, r0
 374              	.LVL34:
 155:src/main.c    **** 
 375              		.loc 1 155 77 discriminator 3 view .LVU116
 376 0186 4046     		mov	r0, r8
 377 0188 FFF7FEFF 		bl	logf
 378              	.LVL35:
 379 018c 8046     		mov	r8, r0
 380              	.LVL36:
 155:src/main.c    **** 
 381              		.loc 1 155 91 discriminator 4 view .LVU117
 382 018e 3046     		mov	r0, r6
 383 0190 FFF7FEFF 		bl	logf
 384              	.LVL37:
 155:src/main.c    **** 
 385              		.loc 1 155 37 discriminator 2 view .LVU118
 386 0194 5946     		mov	r1, fp
 155:src/main.c    **** 
 387              		.loc 1 155 91 discriminator 4 view .LVU119
 388 0196 8246     		mov	r10, r0
 389              	.LVL38:
 157:src/main.c    ****       hr_values = (60.00f) * refined_freq;
 390              		.loc 1 157 7 is_stmt 1 view .LVU120
 158:src/main.c    **** #else
 391              		.loc 1 158 7 view .LVU121
ARM GAS  /tmp/cctFGGIe.s 			page 12


 155:src/main.c    **** 
 392              		.loc 1 155 37 is_stmt 0 discriminator 2 view .LVU122
 393 0198 4846     		mov	r0, r9
 394              	.LVL39:
 155:src/main.c    **** 
 395              		.loc 1 155 37 discriminator 2 view .LVU123
 396 019a FFF7FEFF 		bl	__aeabi_fsub
 397              	.LVL40:
 155:src/main.c    **** 
 398              		.loc 1 155 20 discriminator 2 view .LVU124
 399 019e 4FF07C51 		mov	r1, #1056964608
 400 01a2 FFF7FEFF 		bl	__aeabi_fmul
 401              	.LVL41:
 155:src/main.c    **** 
 402              		.loc 1 155 75 discriminator 4 view .LVU125
 403 01a6 4146     		mov	r1, r8
 155:src/main.c    **** 
 404              		.loc 1 155 20 discriminator 2 view .LVU126
 405 01a8 0646     		mov	r6, r0
 406              	.LVL42:
 155:src/main.c    **** 
 407              		.loc 1 155 75 discriminator 4 view .LVU127
 408 01aa 4046     		mov	r0, r8
 409 01ac FFF7FEFF 		bl	__aeabi_fadd
 410              	.LVL43:
 411 01b0 0146     		mov	r1, r0
 155:src/main.c    **** 
 412              		.loc 1 155 71 discriminator 4 view .LVU128
 413 01b2 3846     		mov	r0, r7
 414 01b4 FFF7FEFF 		bl	__aeabi_fsub
 415              	.LVL44:
 155:src/main.c    **** 
 416              		.loc 1 155 89 discriminator 5 view .LVU129
 417 01b8 5146     		mov	r1, r10
 418 01ba FFF7FEFF 		bl	__aeabi_fadd
 419              	.LVL45:
 420 01be 0146     		mov	r1, r0
 155:src/main.c    **** 
 421              		.loc 1 155 13 discriminator 5 view .LVU130
 422 01c0 3046     		mov	r0, r6
 423 01c2 FFF7FEFF 		bl	__aeabi_fdiv
 424              	.LVL46:
 425 01c6 0646     		mov	r6, r0
 157:src/main.c    ****       hr_values = (60.00f) * refined_freq;
 426              		.loc 1 157 23 view .LVU131
 427 01c8 2846     		mov	r0, r5
 428 01ca FFF7FEFF 		bl	__aeabi_ui2f
 429              	.LVL47:
 430 01ce 0146     		mov	r1, r0
 157:src/main.c    ****       hr_values = (60.00f) * refined_freq;
 431              		.loc 1 157 43 view .LVU132
 432 01d0 3046     		mov	r0, r6
 433 01d2 FFF7FEFF 		bl	__aeabi_fadd
 434              	.LVL48:
 157:src/main.c    ****       hr_values = (60.00f) * refined_freq;
 435              		.loc 1 157 20 view .LVU133
 436 01d6 1149     		ldr	r1, .L27+36
ARM GAS  /tmp/cctFGGIe.s 			page 13


 437 01d8 FFF7FEFF 		bl	__aeabi_fmul
 438              	.LVL49:
 158:src/main.c    **** #else
 439              		.loc 1 158 28 view .LVU134
 440 01dc 1049     		ldr	r1, .L27+40
 441 01de FFF7FEFF 		bl	__aeabi_fmul
 442              	.LVL50:
 158:src/main.c    **** #else
 443              		.loc 1 158 17 view .LVU135
 444 01e2 C4F8200C 		str	r0, [r4, #3104]	@ float
 445              	.LVL51:
 446              	.L1:
 158:src/main.c    **** #else
 447              		.loc 1 158 17 view .LVU136
 448              	.LBE15:
 170:src/main.c    ****    }
 171:src/main.c    **** }
 449              		.loc 1 171 1 view .LVU137
 450 01e6 BDE8F88F 		pop	{r3, r4, r5, r6, r7, r8, r9, r10, fp, pc}
 451              	.LVL52:
 452              	.L18:
 453              	.LBB16:
 145:src/main.c    ****       float32_t mag_k = (mag[maxIndex]);
 454              		.loc 1 145 41 discriminator 1 view .LVU138
 455 01ea 0E4F     		ldr	r7, .L27+44
 456 01ec ADE7     		b	.L12
 457              	.LVL53:
 458              	.L19:
 147:src/main.c    ****       float32_t mag_kp1 = (mag[maxIndex + 1]);
 459              		.loc 1 147 37 discriminator 1 view .LVU139
 460 01ee DFF83480 		ldr	r8, .L27+44
 461 01f2 B3E7     		b	.L13
 462              	.LVL54:
 463              	.L20:
 149:src/main.c    **** 
 464              		.loc 1 149 41 discriminator 1 view .LVU140
 465 01f4 0B4E     		ldr	r6, .L27+44
 466 01f6 BAE7     		b	.L14
 467              	.L28:
 468              		.align	2
 469              	.L27:
 470 01f8 00000000 		.word	.LANCHOR0
 471 01fc 00000000 		.word	adc_buffer
 472 0200 00040000 		.word	.LANCHOR0+1024
 473 0204 00080000 		.word	.LANCHOR0+2048
 474 0208 00000000 		.word	.LANCHOR1
 475 020c 14080000 		.word	.LANCHOR0+2068
 476 0210 140C0000 		.word	.LANCHOR0+3092
 477 0214 78080000 		.word	.LANCHOR0+2168
 478 0218 180C0000 		.word	.LANCHOR0+3096
 479 021c 1B2FDD3D 		.word	1037905691
 480 0220 00007042 		.word	1114636288
 481 0224 6F12833A 		.word	981668463
 482              	.LBE16:
 483              		.cfi_endproc
 484              	.LFE122:
 485              		.size	DSP_process, .-DSP_process
ARM GAS  /tmp/cctFGGIe.s 			page 14


 486              		.global	__aeabi_f2uiz
 487              		.section	.text.startup,"ax",%progbits
 488              		.align	1
 489              		.global	main
 490              		.syntax unified
 491              		.thumb
 492              		.thumb_func
 493              		.type	main, %function
 494              	main:
 495              	.LFB121:
  57:src/main.c    ****    // Peripheral and process initialization
 496              		.loc 1 57 1 is_stmt 1 view -0
 497              		.cfi_startproc
 498              		@ Volatile: function does not return.
 499              		@ args = 0, pretend = 0, frame = 0
 500              		@ frame_needed = 0, uses_anonymous_args = 0
  59:src/main.c    ****    spi_init();      // SPI initialization
 501              		.loc 1 59 4 view .LVU142
  57:src/main.c    ****    // Peripheral and process initialization
 502              		.loc 1 57 1 is_stmt 0 view .LVU143
 503 0000 08B5     		push	{r3, lr}
 504              		.cfi_def_cfa_offset 8
 505              		.cfi_offset 3, -8
 506              		.cfi_offset 14, -4
  59:src/main.c    ****    spi_init();      // SPI initialization
 507              		.loc 1 59 4 view .LVU144
 508 0002 FFF7FEFF 		bl	X_Clock_Init
 509              	.LVL55:
  60:src/main.c    ****    TIM2_Init();     // TIM2 Delay initialization
 510              		.loc 1 60 4 is_stmt 1 view .LVU145
 511 0006 FFF7FEFF 		bl	spi_init
 512              	.LVL56:
  61:src/main.c    ****    adc_init_cont(); // ADC  initialization
 513              		.loc 1 61 4 view .LVU146
 514 000a FFF7FEFF 		bl	TIM2_Init
 515              	.LVL57:
  62:src/main.c    ****    led_init();      // LEDs initialization
 516              		.loc 1 62 4 view .LVU147
 517 000e FFF7FEFF 		bl	adc_init_cont
 518              	.LVL58:
  63:src/main.c    **** 
 519              		.loc 1 63 4 view .LVU148
 520 0012 FFF7FEFF 		bl	led_init
 521              	.LVL59:
  65:src/main.c    **** 
 522              		.loc 1 65 4 view .LVU149
 523 0016 0123     		movs	r3, #1
 524 0018 0022     		movs	r2, #0
 525 001a 4FF40071 		mov	r1, #512
 526 001e 0F48     		ldr	r0, .L33
 527 0020 FFF7FEFF 		bl	arm_cfft_radix2_init_q15
 528              	.LVL60:
  69:src/main.c    ****       {
 529              		.loc 1 69 11 is_stmt 0 view .LVU150
 530 0024 0E4E     		ldr	r6, .L33+4
  82:src/main.c    ****          _us_delay(50);
 531              		.loc 1 82 10 view .LVU151
ARM GAS  /tmp/cctFGGIe.s 			page 15


 532 0026 0F4D     		ldr	r5, .L33+8
 533              	.L30:
  67:src/main.c    ****    {
 534              		.loc 1 67 4 is_stmt 1 view .LVU152
  69:src/main.c    ****       {
 535              		.loc 1 69 7 view .LVU153
  69:src/main.c    ****       {
 536              		.loc 1 69 10 is_stmt 0 view .LVU154
 537 0028 3378     		ldrb	r3, [r6]	@ zero_extendqisi2
 538 002a 33B1     		cbz	r3, .L31
  72:src/main.c    ****          DSP_process(); // call DSP_process
 539              		.loc 1 72 10 is_stmt 1 view .LVU155
  72:src/main.c    ****          DSP_process(); // call DSP_process
 540              		.loc 1 72 19 is_stmt 0 view .LVU156
 541 002c 0023     		movs	r3, #0
 542 002e 3370     		strb	r3, [r6]
  73:src/main.c    **** 
 543              		.loc 1 73 10 is_stmt 1 view .LVU157
 544 0030 FFF7FEFF 		bl	DSP_process
 545              	.LVL61:
  76:src/main.c    ****       }
 546              		.loc 1 76 10 view .LVU158
 547 0034 FFF7FEFF 		bl	start_process
 548              	.LVL62:
 549 0038 F6E7     		b	.L30
 550              	.L31:
  81:src/main.c    ****          spi_transmit(hr_values, confidence); // display Heart Rate and confidence
 551              		.loc 1 81 10 view .LVU159
 552 003a 3220     		movs	r0, #50
 553 003c FFF7FEFF 		bl	_us_delay
 554              	.LVL63:
  82:src/main.c    ****          _us_delay(50);
 555              		.loc 1 82 10 view .LVU160
 556 0040 D5F8200C 		ldr	r0, [r5, #3104]	@ float
 557 0044 B5F81E4C 		ldrh	r4, [r5, #3102]
 558 0048 FFF7FEFF 		bl	__aeabi_f2uiz
 559              	.LVL64:
 560 004c 24B2     		sxth	r4, r4
 561 004e 2146     		mov	r1, r4
 562 0050 FFF7FEFF 		bl	spi_transmit
 563              	.LVL65:
  83:src/main.c    ****       }
 564              		.loc 1 83 10 view .LVU161
 565 0054 3220     		movs	r0, #50
 566 0056 FFF7FEFF 		bl	_us_delay
 567              	.LVL66:
 568 005a E5E7     		b	.L30
 569              	.L34:
 570              		.align	2
 571              	.L33:
 572 005c 04080000 		.word	.LANCHOR0+2052
 573 0060 00000000 		.word	ACC_COMP
 574 0064 00000000 		.word	.LANCHOR0
 575              		.cfi_endproc
 576              	.LFE121:
 577              		.size	main, .-main
 578              		.global	fft_inst
ARM GAS  /tmp/cctFGGIe.s 			page 16


 579              		.global	sampleMean
 580              		.global	hr_values
 581              		.global	confidence
 582              		.global	noisefloor
 583              		.global	maxIndex
 584              		.global	maxVal
 585              		.global	input
 586              		.global	pSPO2_RED
 587              		.global	pSPO2_IR
 588              		.global	pPPG_Sample
 589              		.global	__errno
 590              		.global	hamming
 591              		.data
 592              		.align	2
 593              		.set	.LANCHOR1,. + 0
 594              		.type	hamming, %object
 595              		.size	hamming, 512
 596              	hamming:
 597 0000 3D0A     		.short	2621
 598 0002 420A     		.short	2626
 599 0004 500A     		.short	2640
 600 0006 670A     		.short	2663
 601 0008 870A     		.short	2695
 602 000a B00A     		.short	2736
 603 000c E20A     		.short	2786
 604 000e 1D0B     		.short	2845
 605 0010 610B     		.short	2913
 606 0012 AF0B     		.short	2991
 607 0014 050C     		.short	3077
 608 0016 640C     		.short	3172
 609 0018 CC0C     		.short	3276
 610 001a 3C0D     		.short	3388
 611 001c B50D     		.short	3509
 612 001e 370E     		.short	3639
 613 0020 C20E     		.short	3778
 614 0022 550F     		.short	3925
 615 0024 F00F     		.short	4080
 616 0026 9310     		.short	4243
 617 0028 3F11     		.short	4415
 618 002a F311     		.short	4595
 619 002c AE12     		.short	4782
 620 002e 7213     		.short	4978
 621 0030 3D14     		.short	5181
 622 0032 1015     		.short	5392
 623 0034 EA15     		.short	5610
 624 0036 CC16     		.short	5836
 625 0038 B517     		.short	6069
 626 003a A518     		.short	6309
 627 003c 9B19     		.short	6555
 628 003e 991A     		.short	6809
 629 0040 9D1B     		.short	7069
 630 0042 A81C     		.short	7336
 631 0044 B91D     		.short	7609
 632 0046 D01E     		.short	7888
 633 0048 ED1F     		.short	8173
 634 004a 1021     		.short	8464
 635 004c 3822     		.short	8760
ARM GAS  /tmp/cctFGGIe.s 			page 17


 636 004e 6623     		.short	9062
 637 0050 9924     		.short	9369
 638 0052 D125     		.short	9681
 639 0054 0E27     		.short	9998
 640 0056 4F28     		.short	10319
 641 0058 9629     		.short	10646
 642 005a E02A     		.short	10976
 643 005c 2E2C     		.short	11310
 644 005e 812D     		.short	11649
 645 0060 D72E     		.short	11991
 646 0062 3030     		.short	12336
 647 0064 8D31     		.short	12685
 648 0066 ED32     		.short	13037
 649 0068 4F34     		.short	13391
 650 006a B535     		.short	13749
 651 006c 1C37     		.short	14108
 652 006e 8638     		.short	14470
 653 0070 F239     		.short	14834
 654 0072 5F3B     		.short	15199
 655 0074 CE3C     		.short	15566
 656 0076 3F3E     		.short	15935
 657 0078 B03F     		.short	16304
 658 007a 2241     		.short	16674
 659 007c 9542     		.short	17045
 660 007e 0844     		.short	17416
 661 0080 7C45     		.short	17788
 662 0082 EF46     		.short	18159
 663 0084 6248     		.short	18530
 664 0086 D449     		.short	18900
 665 0088 464B     		.short	19270
 666 008a B74C     		.short	19639
 667 008c 274E     		.short	20007
 668 008e 954F     		.short	20373
 669 0090 0251     		.short	20738
 670 0092 6D52     		.short	21101
 671 0094 D553     		.short	21461
 672 0096 3C55     		.short	21820
 673 0098 A056     		.short	22176
 674 009a 0158     		.short	22529
 675 009c 5F59     		.short	22879
 676 009e BA5A     		.short	23226
 677 00a0 125C     		.short	23570
 678 00a2 665D     		.short	23910
 679 00a4 B75E     		.short	24247
 680 00a6 0360     		.short	24579
 681 00a8 4B61     		.short	24907
 682 00aa 8F62     		.short	25231
 683 00ac CF63     		.short	25551
 684 00ae 0965     		.short	25865
 685 00b0 3F66     		.short	26175
 686 00b2 6F67     		.short	26479
 687 00b4 9A68     		.short	26778
 688 00b6 C069     		.short	27072
 689 00b8 E06A     		.short	27360
 690 00ba FA6B     		.short	27642
 691 00bc 0E6D     		.short	27918
 692 00be 1C6E     		.short	28188
ARM GAS  /tmp/cctFGGIe.s 			page 18


 693 00c0 236F     		.short	28451
 694 00c2 2470     		.short	28708
 695 00c4 1E71     		.short	28958
 696 00c6 1272     		.short	29202
 697 00c8 FE72     		.short	29438
 698 00ca E373     		.short	29667
 699 00cc C174     		.short	29889
 700 00ce 9875     		.short	30104
 701 00d0 6776     		.short	30311
 702 00d2 2E77     		.short	30510
 703 00d4 EE77     		.short	30702
 704 00d6 A678     		.short	30886
 705 00d8 5579     		.short	31061
 706 00da FD79     		.short	31229
 707 00dc 9C7A     		.short	31388
 708 00de 337B     		.short	31539
 709 00e0 C27B     		.short	31682
 710 00e2 487C     		.short	31816
 711 00e4 C67C     		.short	31942
 712 00e6 3B7D     		.short	32059
 713 00e8 A77D     		.short	32167
 714 00ea 0A7E     		.short	32266
 715 00ec 657E     		.short	32357
 716 00ee B77E     		.short	32439
 717 00f0 FF7E     		.short	32511
 718 00f2 3F7F     		.short	32575
 719 00f4 767F     		.short	32630
 720 00f6 A37F     		.short	32675
 721 00f8 C87F     		.short	32712
 722 00fa E37F     		.short	32739
 723 00fc F67F     		.short	32758
 724 00fe FF7F     		.short	32767
 725 0100 FF7F     		.short	32767
 726 0102 F67F     		.short	32758
 727 0104 E37F     		.short	32739
 728 0106 C87F     		.short	32712
 729 0108 A37F     		.short	32675
 730 010a 767F     		.short	32630
 731 010c 3F7F     		.short	32575
 732 010e FF7E     		.short	32511
 733 0110 B77E     		.short	32439
 734 0112 657E     		.short	32357
 735 0114 0A7E     		.short	32266
 736 0116 A77D     		.short	32167
 737 0118 3B7D     		.short	32059
 738 011a C67C     		.short	31942
 739 011c 487C     		.short	31816
 740 011e C27B     		.short	31682
 741 0120 337B     		.short	31539
 742 0122 9C7A     		.short	31388
 743 0124 FD79     		.short	31229
 744 0126 5579     		.short	31061
 745 0128 A678     		.short	30886
 746 012a EE77     		.short	30702
 747 012c 2E77     		.short	30510
 748 012e 6776     		.short	30311
 749 0130 9875     		.short	30104
ARM GAS  /tmp/cctFGGIe.s 			page 19


 750 0132 C174     		.short	29889
 751 0134 E373     		.short	29667
 752 0136 FE72     		.short	29438
 753 0138 1272     		.short	29202
 754 013a 1E71     		.short	28958
 755 013c 2470     		.short	28708
 756 013e 236F     		.short	28451
 757 0140 1C6E     		.short	28188
 758 0142 0E6D     		.short	27918
 759 0144 FA6B     		.short	27642
 760 0146 E06A     		.short	27360
 761 0148 C069     		.short	27072
 762 014a 9A68     		.short	26778
 763 014c 6F67     		.short	26479
 764 014e 3F66     		.short	26175
 765 0150 0965     		.short	25865
 766 0152 CF63     		.short	25551
 767 0154 8F62     		.short	25231
 768 0156 4B61     		.short	24907
 769 0158 0360     		.short	24579
 770 015a B75E     		.short	24247
 771 015c 665D     		.short	23910
 772 015e 125C     		.short	23570
 773 0160 BA5A     		.short	23226
 774 0162 5F59     		.short	22879
 775 0164 0158     		.short	22529
 776 0166 A056     		.short	22176
 777 0168 3C55     		.short	21820
 778 016a D553     		.short	21461
 779 016c 6D52     		.short	21101
 780 016e 0251     		.short	20738
 781 0170 954F     		.short	20373
 782 0172 274E     		.short	20007
 783 0174 B74C     		.short	19639
 784 0176 464B     		.short	19270
 785 0178 D449     		.short	18900
 786 017a 6248     		.short	18530
 787 017c EF46     		.short	18159
 788 017e 7C45     		.short	17788
 789 0180 0844     		.short	17416
 790 0182 9542     		.short	17045
 791 0184 2241     		.short	16674
 792 0186 B03F     		.short	16304
 793 0188 3F3E     		.short	15935
 794 018a CE3C     		.short	15566
 795 018c 5F3B     		.short	15199
 796 018e F239     		.short	14834
 797 0190 8638     		.short	14470
 798 0192 1C37     		.short	14108
 799 0194 B535     		.short	13749
 800 0196 4F34     		.short	13391
 801 0198 ED32     		.short	13037
 802 019a 8D31     		.short	12685
 803 019c 3030     		.short	12336
 804 019e D72E     		.short	11991
 805 01a0 812D     		.short	11649
 806 01a2 2E2C     		.short	11310
ARM GAS  /tmp/cctFGGIe.s 			page 20


 807 01a4 E02A     		.short	10976
 808 01a6 9629     		.short	10646
 809 01a8 4F28     		.short	10319
 810 01aa 0E27     		.short	9998
 811 01ac D125     		.short	9681
 812 01ae 9924     		.short	9369
 813 01b0 6623     		.short	9062
 814 01b2 3822     		.short	8760
 815 01b4 1021     		.short	8464
 816 01b6 ED1F     		.short	8173
 817 01b8 D01E     		.short	7888
 818 01ba B91D     		.short	7609
 819 01bc A81C     		.short	7336
 820 01be 9D1B     		.short	7069
 821 01c0 991A     		.short	6809
 822 01c2 9B19     		.short	6555
 823 01c4 A518     		.short	6309
 824 01c6 B517     		.short	6069
 825 01c8 CC16     		.short	5836
 826 01ca EA15     		.short	5610
 827 01cc 1015     		.short	5392
 828 01ce 3D14     		.short	5181
 829 01d0 7213     		.short	4978
 830 01d2 AE12     		.short	4782
 831 01d4 F311     		.short	4595
 832 01d6 3F11     		.short	4415
 833 01d8 9310     		.short	4243
 834 01da F00F     		.short	4080
 835 01dc 550F     		.short	3925
 836 01de C20E     		.short	3778
 837 01e0 370E     		.short	3639
 838 01e2 B50D     		.short	3509
 839 01e4 3C0D     		.short	3388
 840 01e6 CC0C     		.short	3276
 841 01e8 640C     		.short	3172
 842 01ea 050C     		.short	3077
 843 01ec AF0B     		.short	2991
 844 01ee 610B     		.short	2913
 845 01f0 1D0B     		.short	2845
 846 01f2 E20A     		.short	2786
 847 01f4 B00A     		.short	2736
 848 01f6 870A     		.short	2695
 849 01f8 670A     		.short	2663
 850 01fa 500A     		.short	2640
 851 01fc 420A     		.short	2626
 852 01fe 3D0A     		.short	2621
 853              		.type	pSPO2_RED, %object
 854              		.size	pSPO2_RED, 4
 855              	pSPO2_RED:
 856 0200 04000000 		.word	adc_buffer+4
 857              		.type	pSPO2_IR, %object
 858              		.size	pSPO2_IR, 4
 859              	pSPO2_IR:
 860 0204 02000000 		.word	adc_buffer+2
 861              		.type	pPPG_Sample, %object
 862              		.size	pPPG_Sample, 4
 863              	pPPG_Sample:
ARM GAS  /tmp/cctFGGIe.s 			page 21


 864 0208 00000000 		.word	adc_buffer
 865              		.bss
 866              		.align	2
 867              		.set	.LANCHOR0,. + 0
 868              		.type	input, %object
 869              		.size	input, 2048
 870              	input:
 871 0000 00000000 		.space	2048
 871      00000000 
 871      00000000 
 871      00000000 
 871      00000000 
 872              		.type	sampleMean, %object
 873              		.size	sampleMean, 2
 874              	sampleMean:
 875 0800 0000     		.space	2
 876 0802 0000     		.space	2
 877              		.type	fft_inst, %object
 878              		.size	fft_inst, 16
 879              	fft_inst:
 880 0804 00000000 		.space	16
 880      00000000 
 880      00000000 
 880      00000000 
 881              		.type	mag, %object
 882              		.size	mag, 1024
 883              	mag:
 884 0814 00000000 		.space	1024
 884      00000000 
 884      00000000 
 884      00000000 
 884      00000000 
 885              		.type	noisefloor, %object
 886              		.size	noisefloor, 2
 887              	noisefloor:
 888 0c14 0000     		.space	2
 889 0c16 0000     		.space	2
 890              		.type	maxIndex, %object
 891              		.size	maxIndex, 4
 892              	maxIndex:
 893 0c18 00000000 		.space	4
 894              		.type	maxVal, %object
 895              		.size	maxVal, 2
 896              	maxVal:
 897 0c1c 0000     		.space	2
 898              		.type	confidence, %object
 899              		.size	confidence, 2
 900              	confidence:
 901 0c1e 0000     		.space	2
 902              		.type	hr_values, %object
 903              		.size	hr_values, 4
 904              	hr_values:
 905 0c20 00000000 		.space	4
 906              		.type	__errno, %object
 907              		.size	__errno, 4
 908              	__errno:
 909 0c24 00000000 		.space	4
ARM GAS  /tmp/cctFGGIe.s 			page 22


 910              		.text
 911              	.Letext0:
 912              		.file 2 "/opt/arm-none-eabi/arm-none-eabi/include/machine/_default_types.h"
 913              		.file 3 "/opt/arm-none-eabi/arm-none-eabi/include/sys/_stdint.h"
 914              		.file 4 "/opt/arm-none-eabi/lib/gcc/arm-none-eabi/13.3.1/include/stddef.h"
 915              		.file 5 "dsp_lib/arm_math.h"
 916              		.file 6 "src/drivers/adc.h"
 917              		.file 7 "src/hamming.h"
 918              		.file 8 "/opt/arm-none-eabi/arm-none-eabi/include/math.h"
 919              		.file 9 "/opt/arm-none-eabi/arm-none-eabi/include/string.h"
 920              		.file 10 "src/drivers/spi.h"
 921              		.file 11 "src/drivers/delay.h"
 922              		.file 12 "src/drivers/ledconf.h"
 923              		.file 13 "src/drivers/HSE_CLK.h"
 924              		.file 14 "<built-in>"