ARM GAS  /tmp/cc0Bue3b.s 			page 1


   1              		.cpu cortex-m3
   2              		.arch armv7-m
   3              		.fpu softvfp
   4              		.eabi_attribute 20, 1
   5              		.eabi_attribute 21, 1
   6              		.eabi_attribute 23, 3
   7              		.eabi_attribute 24, 1
   8              		.eabi_attribute 25, 1
   9              		.eabi_attribute 26, 1
  10              		.eabi_attribute 30, 4
  11              		.eabi_attribute 34, 1
  12              		.eabi_attribute 18, 4
  13              		.file	"spi.c"
  14              		.text
  15              	.Ltext0:
  16              		.cfi_sections	.debug_frame
  17              		.file 1 "src/drivers/spi.c"
  18              		.align	1
  19              		.global	spi_init
  20              		.syntax unified
  21              		.thumb
  22              		.thumb_func
  23              		.type	spi_init, %function
  24              	spi_init:
  25              	.LFB63:
   1:src/drivers/spi.c **** 
   2:src/drivers/spi.c **** /**
   3:src/drivers/spi.c ****  * @file    spi.c
   4:src/drivers/spi.c ****  * @brief   SPI driver interface for STM32F103
   5:src/drivers/spi.c ****  * @author  Umesh Puri
   6:src/drivers/spi.c ****  * @date    2025-06-02
   7:src/drivers/spi.c ****  * @version 1.0
   8:src/drivers/spi.c ****  *
   9:src/drivers/spi.c ****  * This file provides the interface for configuring and using the SPI peripheral
  10:src/drivers/spi.c ****  * on the STM32F103. It includes functions for initialization and data transfer.
  11:src/drivers/spi.c ****  *
  12:src/drivers/spi.c ****  * @license MIT License
  13:src/drivers/spi.c ****  * Copyright (c) 2025 Umesh
  14:src/drivers/spi.c ****  */
  15:src/drivers/spi.c **** 
  16:src/drivers/spi.c **** #include "spi.h"
  17:src/drivers/spi.c **** 
  18:src/drivers/spi.c **** void spi_init(void)
  19:src/drivers/spi.c **** {
  26              		.loc 1 19 1 view -0
  27              		.cfi_startproc
  28              		@ args = 0, pretend = 0, frame = 0
  29              		@ frame_needed = 0, uses_anonymous_args = 0
  30              		@ link register save eliminated.
  20:src/drivers/spi.c ****   // Enable GPIOA, GPIOB, AFIO, SPI1
  21:src/drivers/spi.c ****   RCC->APB2ENR |= RCC_APB2ENR_IOPAEN |
  31              		.loc 1 21 3 view .LVU1
  32              		.loc 1 21 6 is_stmt 0 view .LVU2
  33 0000 3C4A     		ldr	r2, .L2
  34 0002 9369     		ldr	r3, [r2, #24]
  35              		.loc 1 21 16 view .LVU3
  36 0004 43F48053 		orr	r3, r3, #4096
ARM GAS  /tmp/cc0Bue3b.s 			page 2


  37 0008 43F00D03 		orr	r3, r3, #13
  38 000c 9361     		str	r3, [r2, #24]
  22:src/drivers/spi.c ****                   RCC_APB2ENR_IOPBEN |
  23:src/drivers/spi.c ****                   RCC_APB2ENR_AFIOEN |
  24:src/drivers/spi.c ****                   RCC_APB2ENR_SPI1EN;
  25:src/drivers/spi.c **** 
  26:src/drivers/spi.c ****   // PB6 as INPUT for Handshake
  27:src/drivers/spi.c ****   GPIOB->CRL &= ~GPIO_CRL_MODE6;
  39              		.loc 1 27 3 is_stmt 1 view .LVU4
  40              		.loc 1 27 8 is_stmt 0 view .LVU5
  41 000e 3A4B     		ldr	r3, .L2+4
  42 0010 1A68     		ldr	r2, [r3]
  43              		.loc 1 27 14 view .LVU6
  44 0012 22F04072 		bic	r2, r2, #50331648
  45 0016 1A60     		str	r2, [r3]
  28:src/drivers/spi.c ****   GPIOB->CRL |= GPIO_CRL_CNF6_1;
  46              		.loc 1 28 3 is_stmt 1 view .LVU7
  47              		.loc 1 28 8 is_stmt 0 view .LVU8
  48 0018 1A68     		ldr	r2, [r3]
  49              		.loc 1 28 14 view .LVU9
  50 001a 42F00062 		orr	r2, r2, #134217728
  51 001e 1A60     		str	r2, [r3]
  29:src/drivers/spi.c ****   GPIOB->CRL &= ~GPIO_CRL_CNF6_0;
  52              		.loc 1 29 3 is_stmt 1 view .LVU10
  53              		.loc 1 29 8 is_stmt 0 view .LVU11
  54 0020 1A68     		ldr	r2, [r3]
  55              		.loc 1 29 14 view .LVU12
  56 0022 22F08062 		bic	r2, r2, #67108864
  57 0026 1A60     		str	r2, [r3]
  30:src/drivers/spi.c ****   GPIOB->ODR &= ~GPIO_ODR_ODR6;
  58              		.loc 1 30 3 is_stmt 1 view .LVU13
  59              		.loc 1 30 8 is_stmt 0 view .LVU14
  60 0028 DA68     		ldr	r2, [r3, #12]
  61              		.loc 1 30 14 view .LVU15
  62 002a 22F04002 		bic	r2, r2, #64
  63 002e DA60     		str	r2, [r3, #12]
  31:src/drivers/spi.c **** 
  32:src/drivers/spi.c ****   // Disable JTAG (free PB3)
  33:src/drivers/spi.c ****   AFIO->MAPR &= ~AFIO_MAPR_SWJ_CFG;
  64              		.loc 1 33 3 is_stmt 1 view .LVU16
  65              		.loc 1 33 7 is_stmt 0 view .LVU17
  66 0030 324A     		ldr	r2, .L2+8
  67 0032 5168     		ldr	r1, [r2, #4]
  68              		.loc 1 33 14 view .LVU18
  69 0034 21F0E061 		bic	r1, r1, #117440512
  70 0038 5160     		str	r1, [r2, #4]
  34:src/drivers/spi.c ****   AFIO->MAPR |= AFIO_MAPR_SWJ_CFG_JTAGDISABLE;
  71              		.loc 1 34 3 is_stmt 1 view .LVU19
  72              		.loc 1 34 7 is_stmt 0 view .LVU20
  73 003a 5168     		ldr	r1, [r2, #4]
  74              		.loc 1 34 14 view .LVU21
  75 003c 41F00071 		orr	r1, r1, #33554432
  76 0040 5160     		str	r1, [r2, #4]
  35:src/drivers/spi.c **** 
  36:src/drivers/spi.c ****   // PB3 - SCK (AF-PP)
  37:src/drivers/spi.c ****   GPIOB->CRL &= ~(GPIO_CRL_MODE3 | GPIO_CRL_CNF3);     // Clear bits
  77              		.loc 1 37 3 is_stmt 1 view .LVU22
ARM GAS  /tmp/cc0Bue3b.s 			page 3


  78              		.loc 1 37 8 is_stmt 0 view .LVU23
  79 0042 1968     		ldr	r1, [r3]
  80              		.loc 1 37 14 view .LVU24
  81 0044 21F47041 		bic	r1, r1, #61440
  82 0048 1960     		str	r1, [r3]
  38:src/drivers/spi.c ****   GPIOB->CRL |= (GPIO_CRL_MODE3_1 | GPIO_CRL_MODE3_0); // MODE3 = 11 (50 MHz)
  83              		.loc 1 38 3 is_stmt 1 view .LVU25
  84              		.loc 1 38 8 is_stmt 0 view .LVU26
  85 004a 1968     		ldr	r1, [r3]
  86              		.loc 1 38 14 view .LVU27
  87 004c 41F44051 		orr	r1, r1, #12288
  88 0050 1960     		str	r1, [r3]
  39:src/drivers/spi.c ****   GPIOB->CRL |= GPIO_CRL_CNF3_1;                       // CNF3_1 = 1
  89              		.loc 1 39 3 is_stmt 1 view .LVU28
  90              		.loc 1 39 8 is_stmt 0 view .LVU29
  91 0052 1968     		ldr	r1, [r3]
  92              		.loc 1 39 14 view .LVU30
  93 0054 41F40041 		orr	r1, r1, #32768
  94 0058 1960     		str	r1, [r3]
  40:src/drivers/spi.c ****   GPIOB->CRL &= ~GPIO_CRL_CNF3_0;                      // CNF3_0 = 0
  95              		.loc 1 40 3 is_stmt 1 view .LVU31
  96              		.loc 1 40 8 is_stmt 0 view .LVU32
  97 005a 1968     		ldr	r1, [r3]
  98              		.loc 1 40 14 view .LVU33
  99 005c 21F48041 		bic	r1, r1, #16384
 100 0060 1960     		str	r1, [r3]
  41:src/drivers/spi.c **** 
  42:src/drivers/spi.c ****   // PB5 - MOSI (AF-PP)
  43:src/drivers/spi.c ****   GPIOB->CRL &= ~(GPIO_CRL_MODE5 | GPIO_CRL_CNF5);     // Clear all bits
 101              		.loc 1 43 3 is_stmt 1 view .LVU34
 102              		.loc 1 43 8 is_stmt 0 view .LVU35
 103 0062 1968     		ldr	r1, [r3]
 104              		.loc 1 43 14 view .LVU36
 105 0064 21F47001 		bic	r1, r1, #15728640
 106 0068 1960     		str	r1, [r3]
  44:src/drivers/spi.c ****   GPIOB->CRL |= (GPIO_CRL_MODE5_1 | GPIO_CRL_MODE5_0); // MODE = 11 => 50 MHz
 107              		.loc 1 44 3 is_stmt 1 view .LVU37
 108              		.loc 1 44 8 is_stmt 0 view .LVU38
 109 006a 1968     		ldr	r1, [r3]
 110              		.loc 1 44 14 view .LVU39
 111 006c 41F44011 		orr	r1, r1, #3145728
 112 0070 1960     		str	r1, [r3]
  45:src/drivers/spi.c ****   GPIOB->CRL |= GPIO_CRL_CNF5_1;                       // CNF = 10 => AF push-pull
 113              		.loc 1 45 3 is_stmt 1 view .LVU40
 114              		.loc 1 45 8 is_stmt 0 view .LVU41
 115 0072 1968     		ldr	r1, [r3]
 116              		.loc 1 45 14 view .LVU42
 117 0074 41F40001 		orr	r1, r1, #8388608
 118 0078 1960     		str	r1, [r3]
  46:src/drivers/spi.c ****   GPIOB->CRL &= ~GPIO_CRL_CNF5_0;
 119              		.loc 1 46 3 is_stmt 1 view .LVU43
 120              		.loc 1 46 8 is_stmt 0 view .LVU44
 121 007a 1968     		ldr	r1, [r3]
 122              		.loc 1 46 14 view .LVU45
 123 007c 21F48001 		bic	r1, r1, #4194304
 124 0080 1960     		str	r1, [r3]
  47:src/drivers/spi.c **** 
ARM GAS  /tmp/cc0Bue3b.s 			page 4


  48:src/drivers/spi.c ****   // PB4 - MISO (input floating)
  49:src/drivers/spi.c ****   GPIOB->CRL &= ~(GPIO_CRL_MODE4 | GPIO_CRL_CNF4);
 125              		.loc 1 49 3 is_stmt 1 view .LVU46
 126              		.loc 1 49 8 is_stmt 0 view .LVU47
 127 0082 1968     		ldr	r1, [r3]
 128              		.loc 1 49 14 view .LVU48
 129 0084 21F47021 		bic	r1, r1, #983040
 130 0088 1960     		str	r1, [r3]
  50:src/drivers/spi.c ****   GPIOB->CRL |= GPIO_CRL_CNF4_0;
 131              		.loc 1 50 3 is_stmt 1 view .LVU49
 132              		.loc 1 50 8 is_stmt 0 view .LVU50
 133 008a 1968     		ldr	r1, [r3]
 134              		.loc 1 50 14 view .LVU51
 135 008c 41F48021 		orr	r1, r1, #262144
 136 0090 1960     		str	r1, [r3]
  51:src/drivers/spi.c ****   // Remap SPI1 to PB3-5
  52:src/drivers/spi.c ****   AFIO->MAPR |= AFIO_MAPR_SPI1_REMAP;
 137              		.loc 1 52 3 is_stmt 1 view .LVU52
 138              		.loc 1 52 7 is_stmt 0 view .LVU53
 139 0092 5368     		ldr	r3, [r2, #4]
 140              		.loc 1 52 14 view .LVU54
 141 0094 43F00103 		orr	r3, r3, #1
 142 0098 5360     		str	r3, [r2, #4]
  53:src/drivers/spi.c **** 
  54:src/drivers/spi.c ****   GPIOA->BSRR = GPIO_BSRR_BS15; // Set PA15 High
 143              		.loc 1 54 3 is_stmt 1 view .LVU55
 144              		.loc 1 54 15 is_stmt 0 view .LVU56
 145 009a 4FF40042 		mov	r2, #32768
 146 009e 184B     		ldr	r3, .L2+12
 147 00a0 1A61     		str	r2, [r3, #16]
  55:src/drivers/spi.c ****   // Clear MODE15 and CNF15 bits
  56:src/drivers/spi.c ****   GPIOA->CRH &= ~(GPIO_CRH_MODE15 | GPIO_CRH_CNF15);
 148              		.loc 1 56 3 is_stmt 1 view .LVU57
 149              		.loc 1 56 8 is_stmt 0 view .LVU58
 150 00a2 5A68     		ldr	r2, [r3, #4]
 151              		.loc 1 56 14 view .LVU59
 152 00a4 22F07042 		bic	r2, r2, #-268435456
 153 00a8 5A60     		str	r2, [r3, #4]
  57:src/drivers/spi.c **** 
  58:src/drivers/spi.c ****   // Set MODE15 to 11 and CNF15 to 00
  59:src/drivers/spi.c ****   GPIOA->CRH |= (GPIO_CRH_MODE15_1 | GPIO_CRH_MODE15_0);
 154              		.loc 1 59 3 is_stmt 1 view .LVU60
 155              		.loc 1 59 8 is_stmt 0 view .LVU61
 156 00aa 5A68     		ldr	r2, [r3, #4]
 157              		.loc 1 59 14 view .LVU62
 158 00ac 42F04052 		orr	r2, r2, #805306368
 159 00b0 5A60     		str	r2, [r3, #4]
  60:src/drivers/spi.c **** 
  61:src/drivers/spi.c ****   SPI1->CR1 = 0;
 160              		.loc 1 61 3 is_stmt 1 view .LVU63
 161              		.loc 1 61 13 is_stmt 0 view .LVU64
 162 00b2 0022     		movs	r2, #0
 163 00b4 03F52053 		add	r3, r3, #10240
 164 00b8 1A60     		str	r2, [r3]
  62:src/drivers/spi.c ****   SPI1->CR1 &= ~SPI_CR1_DFF; // Clear DFF bit -> 8-bit frame
 165              		.loc 1 62 3 is_stmt 1 view .LVU65
 166              		.loc 1 62 7 is_stmt 0 view .LVU66
ARM GAS  /tmp/cc0Bue3b.s 			page 5


 167 00ba 1A68     		ldr	r2, [r3]
 168              		.loc 1 62 13 view .LVU67
 169 00bc 22F40062 		bic	r2, r2, #2048
 170 00c0 1A60     		str	r2, [r3]
  63:src/drivers/spi.c **** 
  64:src/drivers/spi.c ****   SPI1->CR1 |= SPI_CR1_MSTR;                   // Master mode
 171              		.loc 1 64 3 is_stmt 1 view .LVU68
 172              		.loc 1 64 7 is_stmt 0 view .LVU69
 173 00c2 1A68     		ldr	r2, [r3]
 174              		.loc 1 64 13 view .LVU70
 175 00c4 42F00402 		orr	r2, r2, #4
 176 00c8 1A60     		str	r2, [r3]
  65:src/drivers/spi.c ****   SPI1->CR1 |= SPI_CR1_SSM | SPI_CR1_SSI;      // Software NSS management, set NSS high
 177              		.loc 1 65 3 is_stmt 1 view .LVU71
 178              		.loc 1 65 7 is_stmt 0 view .LVU72
 179 00ca 1A68     		ldr	r2, [r3]
 180              		.loc 1 65 13 view .LVU73
 181 00cc 42F44072 		orr	r2, r2, #768
 182 00d0 1A60     		str	r2, [r3]
  66:src/drivers/spi.c ****   SPI1->CR1 &= ~(SPI_CR1_CPOL | SPI_CR1_CPHA); // Mode 0 (CPOL=0, CPHA=0)
 183              		.loc 1 66 3 is_stmt 1 view .LVU74
 184              		.loc 1 66 7 is_stmt 0 view .LVU75
 185 00d2 1A68     		ldr	r2, [r3]
 186              		.loc 1 66 13 view .LVU76
 187 00d4 22F00302 		bic	r2, r2, #3
 188 00d8 1A60     		str	r2, [r3]
  67:src/drivers/spi.c ****   SPI1->CR1 &= ~SPI_CR1_BR;                    // Clear BR bits
 189              		.loc 1 67 3 is_stmt 1 view .LVU77
 190              		.loc 1 67 7 is_stmt 0 view .LVU78
 191 00da 1A68     		ldr	r2, [r3]
 192              		.loc 1 67 13 view .LVU79
 193 00dc 22F03802 		bic	r2, r2, #56
 194 00e0 1A60     		str	r2, [r3]
  68:src/drivers/spi.c ****   SPI1->CR1 |= SPI_CR1_BR_0 | SPI_CR1_BR_2;    // BR=101 (bit0 and bit2 set)
 195              		.loc 1 68 3 is_stmt 1 view .LVU80
 196              		.loc 1 68 7 is_stmt 0 view .LVU81
 197 00e2 1A68     		ldr	r2, [r3]
 198              		.loc 1 68 13 view .LVU82
 199 00e4 42F02802 		orr	r2, r2, #40
 200 00e8 1A60     		str	r2, [r3]
  69:src/drivers/spi.c ****   SPI1->CR1 |= SPI_CR1_SPE;                    // Enable SPI
 201              		.loc 1 69 3 is_stmt 1 view .LVU83
 202              		.loc 1 69 7 is_stmt 0 view .LVU84
 203 00ea 1A68     		ldr	r2, [r3]
 204              		.loc 1 69 13 view .LVU85
 205 00ec 42F04002 		orr	r2, r2, #64
 206 00f0 1A60     		str	r2, [r3]
  70:src/drivers/spi.c **** }
 207              		.loc 1 70 1 view .LVU86
 208 00f2 7047     		bx	lr
 209              	.L3:
 210              		.align	2
 211              	.L2:
 212 00f4 00100240 		.word	1073876992
 213 00f8 000C0140 		.word	1073810432
 214 00fc 00000140 		.word	1073807360
 215 0100 00080140 		.word	1073809408
ARM GAS  /tmp/cc0Bue3b.s 			page 6


 216              		.cfi_endproc
 217              	.LFE63:
 218              		.size	spi_init, .-spi_init
 219              		.align	1
 220              		.global	spi_transmit
 221              		.syntax unified
 222              		.thumb
 223              		.thumb_func
 224              		.type	spi_transmit, %function
 225              	spi_transmit:
 226              	.LVL0:
 227              	.LFB64:
  71:src/drivers/spi.c **** 
  72:src/drivers/spi.c **** void spi_transmit(uint32_t dataH,uint32_t dataL )
  73:src/drivers/spi.c **** {
 228              		.loc 1 73 1 is_stmt 1 view -0
 229              		.cfi_startproc
 230              		@ args = 0, pretend = 0, frame = 8
 231              		@ frame_needed = 0, uses_anonymous_args = 0
  74:src/drivers/spi.c ****   uint64_t data = ((uint64_t)dataH << 32) | dataL;
 232              		.loc 1 74 3 view .LVU88
 233              	.LBB7:
 234              	.LBB8:
  75:src/drivers/spi.c ****   
  76:src/drivers/spi.c ****   uint8_t *pData = (uint8_t *)&data;
  77:src/drivers/spi.c **** 
  78:src/drivers/spi.c ****   cs_low();
  79:src/drivers/spi.c **** 
  80:src/drivers/spi.c ****   // Send write data  command bytes
  81:src/drivers/spi.c **** 
  82:src/drivers/spi.c ****   SPI1->DR = 0x02;
  83:src/drivers/spi.c **** 
  84:src/drivers/spi.c ****   while (!(SPI1->SR & SPI_SR_TXE))
  85:src/drivers/spi.c ****     ;
  86:src/drivers/spi.c ****   SPI1->DR = 0x00;
  87:src/drivers/spi.c **** 
  88:src/drivers/spi.c ****   //GPIOC->BSRR = GPIO_BSRR_BR13; // LED HIGH
  89:src/drivers/spi.c ****   // Send 8 data bytes
  90:src/drivers/spi.c ****   for (int i = 0; i < 8; i++)
  91:src/drivers/spi.c ****   {
  92:src/drivers/spi.c ****     while (!(SPI1->SR & SPI_SR_TXE))
  93:src/drivers/spi.c ****       ;
  94:src/drivers/spi.c ****     SPI1->DR = pData[i];
  95:src/drivers/spi.c ****   }
  96:src/drivers/spi.c **** 
  97:src/drivers/spi.c ****   // Wait for last byte to be fully transmitted
  98:src/drivers/spi.c ****   while (!(SPI1->SR & SPI_SR_TXE))
  99:src/drivers/spi.c ****     ;
 100:src/drivers/spi.c ****   while (SPI1->SR & SPI_SR_BSY)
 101:src/drivers/spi.c ****     ;
 102:src/drivers/spi.c **** 
 103:src/drivers/spi.c ****   // Clear overrun flags by dummy read
 104:src/drivers/spi.c ****   uint32_t dummy = SPI1->DR;
 105:src/drivers/spi.c ****   dummy = SPI1->SR;
 106:src/drivers/spi.c **** 
 107:src/drivers/spi.c ****   cs_high();
 108:src/drivers/spi.c **** }
ARM GAS  /tmp/cc0Bue3b.s 			page 7


 109:src/drivers/spi.c **** 
 110:src/drivers/spi.c **** void cs_low()
 111:src/drivers/spi.c **** {
 112:src/drivers/spi.c ****   GPIOA->BSRR = GPIO_BSRR_BR15; // NSS low
 235              		.loc 1 112 15 is_stmt 0 view .LVU89
 236 0104 4FF00043 		mov	r3, #-2147483648
 237              	.LBE8:
 238              	.LBE7:
  73:src/drivers/spi.c ****   uint64_t data = ((uint64_t)dataH << 32) | dataL;
 239              		.loc 1 73 1 view .LVU90
 240 0108 13B5     		push	{r0, r1, r4, lr}
 241              		.cfi_def_cfa_offset 16
 242              		.cfi_offset 4, -8
 243              		.cfi_offset 14, -4
  74:src/drivers/spi.c ****   uint64_t data = ((uint64_t)dataH << 32) | dataL;
 244              		.loc 1 74 12 view .LVU91
 245 010a CDE90010 		strd	r1, r0, [sp]
  76:src/drivers/spi.c **** 
 246              		.loc 1 76 3 is_stmt 1 view .LVU92
 247              	.LVL1:
  78:src/drivers/spi.c **** 
 248              		.loc 1 78 3 view .LVU93
 249              	.LBB11:
 250              	.LBI7:
 110:src/drivers/spi.c **** {
 251              		.loc 1 110 6 view .LVU94
 252              	.LBB9:
 253              		.loc 1 112 3 view .LVU95
 254              		.loc 1 112 15 is_stmt 0 view .LVU96
 255 010e 1149     		ldr	r1, .L18
 256              	.LVL2:
 257              		.loc 1 112 15 view .LVU97
 258              	.LBE9:
 259              	.LBE11:
  82:src/drivers/spi.c **** 
 260              		.loc 1 82 12 view .LVU98
 261 0110 114A     		ldr	r2, .L18+4
 262              	.LBB12:
 263              	.LBB10:
 264              		.loc 1 112 15 view .LVU99
 265 0112 0B61     		str	r3, [r1, #16]
 113:src/drivers/spi.c ****   for (uint16_t i = 0; i < 1000; i++)
 266              		.loc 1 113 3 is_stmt 1 view .LVU100
 267              	.LBE10:
 268              	.LBE12:
  82:src/drivers/spi.c **** 
 269              		.loc 1 82 3 view .LVU101
  82:src/drivers/spi.c **** 
 270              		.loc 1 82 12 is_stmt 0 view .LVU102
 271 0114 0223     		movs	r3, #2
 272 0116 D360     		str	r3, [r2, #12]
  84:src/drivers/spi.c ****     ;
 273              		.loc 1 84 3 is_stmt 1 view .LVU103
 274              	.L5:
  84:src/drivers/spi.c ****     ;
 275              		.loc 1 84 10 discriminator 1 view .LVU104
  84:src/drivers/spi.c ****     ;
ARM GAS  /tmp/cc0Bue3b.s 			page 8


 276              		.loc 1 84 16 is_stmt 0 discriminator 1 view .LVU105
 277 0118 9368     		ldr	r3, [r2, #8]
  84:src/drivers/spi.c ****     ;
 278              		.loc 1 84 10 discriminator 1 view .LVU106
 279 011a 9B07     		lsls	r3, r3, #30
 280 011c FCD5     		bpl	.L5
  86:src/drivers/spi.c **** 
 281              		.loc 1 86 3 is_stmt 1 view .LVU107
  86:src/drivers/spi.c **** 
 282              		.loc 1 86 12 is_stmt 0 view .LVU108
 283 011e 0023     		movs	r3, #0
 284 0120 6846     		mov	r0, sp
 285              	.LVL3:
  86:src/drivers/spi.c **** 
 286              		.loc 1 86 12 view .LVU109
 287 0122 D360     		str	r3, [r2, #12]
  90:src/drivers/spi.c ****   {
 288              		.loc 1 90 3 is_stmt 1 view .LVU110
 289              	.LBB13:
  90:src/drivers/spi.c ****   {
 290              		.loc 1 90 8 view .LVU111
 291              	.LVL4:
  90:src/drivers/spi.c ****   {
 292              		.loc 1 90 21 discriminator 1 view .LVU112
  92:src/drivers/spi.c ****       ;
 293              		.loc 1 92 18 is_stmt 0 discriminator 1 view .LVU113
 294 0124 0C4A     		ldr	r2, .L18+4
 295              	.LVL5:
 296              	.L6:
  92:src/drivers/spi.c ****       ;
 297              		.loc 1 92 12 is_stmt 1 discriminator 1 view .LVU114
  92:src/drivers/spi.c ****       ;
 298              		.loc 1 92 18 is_stmt 0 discriminator 1 view .LVU115
 299 0126 9468     		ldr	r4, [r2, #8]
  92:src/drivers/spi.c ****       ;
 300              		.loc 1 92 12 discriminator 1 view .LVU116
 301 0128 A407     		lsls	r4, r4, #30
 302 012a FCD5     		bpl	.L6
  94:src/drivers/spi.c ****   }
 303              		.loc 1 94 5 is_stmt 1 view .LVU117
  94:src/drivers/spi.c ****   }
 304              		.loc 1 94 21 is_stmt 0 view .LVU118
 305 012c 10F8014B 		ldrb	r4, [r0], #1	@ zero_extendqisi2
  90:src/drivers/spi.c ****   {
 306              		.loc 1 90 27 discriminator 2 view .LVU119
 307 0130 0133     		adds	r3, r3, #1
  90:src/drivers/spi.c ****   {
 308              		.loc 1 90 21 discriminator 1 view .LVU120
 309 0132 082B     		cmp	r3, #8
  94:src/drivers/spi.c ****   }
 310              		.loc 1 94 14 view .LVU121
 311 0134 D460     		str	r4, [r2, #12]
  90:src/drivers/spi.c ****   {
 312              		.loc 1 90 27 is_stmt 1 discriminator 2 view .LVU122
 313              	.LVL6:
  90:src/drivers/spi.c ****   {
 314              		.loc 1 90 21 discriminator 1 view .LVU123
ARM GAS  /tmp/cc0Bue3b.s 			page 9


 315 0136 F6D1     		bne	.L6
 316              	.LVL7:
 317              	.L8:
  90:src/drivers/spi.c ****   {
 318              		.loc 1 90 21 is_stmt 0 discriminator 1 view .LVU124
 319              	.LBE13:
  98:src/drivers/spi.c ****     ;
 320              		.loc 1 98 10 is_stmt 1 discriminator 1 view .LVU125
  98:src/drivers/spi.c ****     ;
 321              		.loc 1 98 16 is_stmt 0 discriminator 1 view .LVU126
 322 0138 9368     		ldr	r3, [r2, #8]
  98:src/drivers/spi.c ****     ;
 323              		.loc 1 98 10 discriminator 1 view .LVU127
 324 013a 9807     		lsls	r0, r3, #30
 325 013c FCD5     		bpl	.L8
 100:src/drivers/spi.c ****     ;
 326              		.loc 1 100 14 discriminator 1 view .LVU128
 327 013e 064B     		ldr	r3, .L18+4
 328              	.L9:
 100:src/drivers/spi.c ****     ;
 329              		.loc 1 100 10 is_stmt 1 discriminator 1 view .LVU129
 100:src/drivers/spi.c ****     ;
 330              		.loc 1 100 14 is_stmt 0 discriminator 1 view .LVU130
 331 0140 9A68     		ldr	r2, [r3, #8]
 100:src/drivers/spi.c ****     ;
 332              		.loc 1 100 10 discriminator 1 view .LVU131
 333 0142 1206     		lsls	r2, r2, #24
 334 0144 FCD4     		bmi	.L9
 104:src/drivers/spi.c ****   dummy = SPI1->SR;
 335              		.loc 1 104 3 is_stmt 1 view .LVU132
 104:src/drivers/spi.c ****   dummy = SPI1->SR;
 336              		.loc 1 104 12 is_stmt 0 view .LVU133
 337 0146 DA68     		ldr	r2, [r3, #12]
 105:src/drivers/spi.c **** 
 338              		.loc 1 105 3 is_stmt 1 view .LVU134
 105:src/drivers/spi.c **** 
 339              		.loc 1 105 9 is_stmt 0 view .LVU135
 340 0148 9B68     		ldr	r3, [r3, #8]
 107:src/drivers/spi.c **** }
 341              		.loc 1 107 3 is_stmt 1 view .LVU136
 342              	.LBB14:
 343              	.LBI14:
 114:src/drivers/spi.c ****     ;
 115:src/drivers/spi.c **** }
 116:src/drivers/spi.c **** void cs_high()
 344              		.loc 1 116 6 view .LVU137
 345              	.LBB15:
 117:src/drivers/spi.c **** {
 118:src/drivers/spi.c ****   GPIOA->BSRR = GPIO_BSRR_BS15; // NSS high
 346              		.loc 1 118 3 view .LVU138
 347              		.loc 1 118 15 is_stmt 0 view .LVU139
 348 014a 4FF40043 		mov	r3, #32768
 349 014e 0B61     		str	r3, [r1, #16]
 119:src/drivers/spi.c ****   for (uint16_t i = 0; i < 1000; i++)
 350              		.loc 1 119 3 is_stmt 1 view .LVU140
 351              	.LBE15:
 352              	.LBE14:
ARM GAS  /tmp/cc0Bue3b.s 			page 10


 108:src/drivers/spi.c **** 
 353              		.loc 1 108 1 is_stmt 0 view .LVU141
 354 0150 02B0     		add	sp, sp, #8
 355              		.cfi_def_cfa_offset 8
 356              	.LVL8:
 108:src/drivers/spi.c **** 
 357              		.loc 1 108 1 view .LVU142
 358              		@ sp needed
 359 0152 10BD     		pop	{r4, pc}
 360              	.LVL9:
 361              	.L19:
 108:src/drivers/spi.c **** 
 362              		.loc 1 108 1 view .LVU143
 363              		.align	2
 364              	.L18:
 365 0154 00080140 		.word	1073809408
 366 0158 00300140 		.word	1073819648
 367              		.cfi_endproc
 368              	.LFE64:
 369              		.size	spi_transmit, .-spi_transmit
 370              		.align	1
 371              		.global	cs_low
 372              		.syntax unified
 373              		.thumb
 374              		.thumb_func
 375              		.type	cs_low, %function
 376              	cs_low:
 377              	.LFB65:
 111:src/drivers/spi.c ****   GPIOA->BSRR = GPIO_BSRR_BR15; // NSS low
 378              		.loc 1 111 1 is_stmt 1 view -0
 379              		.cfi_startproc
 380              		@ args = 0, pretend = 0, frame = 0
 381              		@ frame_needed = 0, uses_anonymous_args = 0
 382              		@ link register save eliminated.
 112:src/drivers/spi.c ****   for (uint16_t i = 0; i < 1000; i++)
 383              		.loc 1 112 3 view .LVU145
 112:src/drivers/spi.c ****   for (uint16_t i = 0; i < 1000; i++)
 384              		.loc 1 112 15 is_stmt 0 view .LVU146
 385 015c 4FF00042 		mov	r2, #-2147483648
 386 0160 014B     		ldr	r3, .L21
 387 0162 1A61     		str	r2, [r3, #16]
 113:src/drivers/spi.c ****     ;
 388              		.loc 1 113 3 is_stmt 1 view .LVU147
 113:src/drivers/spi.c ****     ;
 389              		.loc 1 113 8 view .LVU148
 113:src/drivers/spi.c ****     ;
 390              		.loc 1 113 26 discriminator 1 view .LVU149
 115:src/drivers/spi.c **** void cs_high()
 391              		.loc 1 115 1 is_stmt 0 view .LVU150
 392 0164 7047     		bx	lr
 393              	.L22:
 394 0166 00BF     		.align	2
 395              	.L21:
 396 0168 00080140 		.word	1073809408
 397              		.cfi_endproc
 398              	.LFE65:
 399              		.size	cs_low, .-cs_low
ARM GAS  /tmp/cc0Bue3b.s 			page 11


 400              		.align	1
 401              		.global	cs_high
 402              		.syntax unified
 403              		.thumb
 404              		.thumb_func
 405              		.type	cs_high, %function
 406              	cs_high:
 407              	.LFB66:
 117:src/drivers/spi.c ****   GPIOA->BSRR = GPIO_BSRR_BS15; // NSS high
 408              		.loc 1 117 1 is_stmt 1 view -0
 409              		.cfi_startproc
 410              		@ args = 0, pretend = 0, frame = 0
 411              		@ frame_needed = 0, uses_anonymous_args = 0
 412              		@ link register save eliminated.
 118:src/drivers/spi.c ****   for (uint16_t i = 0; i < 1000; i++)
 413              		.loc 1 118 3 view .LVU152
 118:src/drivers/spi.c ****   for (uint16_t i = 0; i < 1000; i++)
 414              		.loc 1 118 15 is_stmt 0 view .LVU153
 415 016c 4FF40042 		mov	r2, #32768
 416 0170 014B     		ldr	r3, .L24
 417 0172 1A61     		str	r2, [r3, #16]
 418              		.loc 1 119 3 is_stmt 1 view .LVU154
 419              		.loc 1 119 8 view .LVU155
 420              		.loc 1 119 26 discriminator 1 view .LVU156
 120:src/drivers/spi.c ****     ;
 121:src/drivers/spi.c **** }
 421              		.loc 1 121 1 is_stmt 0 view .LVU157
 422 0174 7047     		bx	lr
 423              	.L25:
 424 0176 00BF     		.align	2
 425              	.L24:
 426 0178 00080140 		.word	1073809408
 427              		.cfi_endproc
 428              	.LFE66:
 429              		.size	cs_high, .-cs_high
 430              	.Letext0:
 431              		.file 2 "/opt/arm-none-eabi/arm-none-eabi/include/machine/_default_types.h"
 432              		.file 3 "/opt/arm-none-eabi/arm-none-eabi/include/sys/_stdint.h"
 433              		.file 4 "common/include/stm32f103xb.h"