ARM GAS  /tmp/ccu058E1.s 			page 1


   1              		.cpu cortex-m3
   2              		.arch armv7-m
   3              		.fpu softvfp
   4              		.eabi_attribute 20, 1
   5              		.eabi_attribute 21, 1
   6              		.eabi_attribute 23, 3
   7              		.eabi_attribute 24, 1
   8              		.eabi_attribute 25, 1
   9              		.eabi_attribute 26, 1
  10              		.eabi_attribute 30, 4
  11              		.eabi_attribute 34, 1
  12              		.eabi_attribute 18, 4
  13              		.file	"uart.c"
  14              		.text
  15              	.Ltext0:
  16              		.cfi_sections	.debug_frame
  17              		.file 1 "src/drivers/uart.c"
  18              		.align	1
  19              		.global	uart1_write
  20              		.syntax unified
  21              		.thumb
  22              		.thumb_func
  23              		.type	uart1_write, %function
  24              	uart1_write:
  25              	.LVL0:
  26              	.LFB65:
   1:src/drivers/uart.c **** 
   2:src/drivers/uart.c **** /**
   3:src/drivers/uart.c ****  * @file    uart.c
   4:src/drivers/uart.c ****  * @brief   UART driver interface for STM32F103 microcontroller series and variants like STM32F103C
   5:src/drivers/uart.c ****  * @author  Umesh Puri
   6:src/drivers/uart.c ****  * @date    2025-06-02
   7:src/drivers/uart.c ****  * @version 1.0
   8:src/drivers/uart.c ****  *
   9:src/drivers/uart.c ****  * This file provides function prototypes for initializing and using the USART
  10:src/drivers/uart.c ****  * peripheral for serial communication on STM32F103 microcontrollers.
  11:src/drivers/uart.c ****  *
  12:src/drivers/uart.c ****  * @license MIT License
  13:src/drivers/uart.c ****  * Copyright (c) 2025 Umesh
  14:src/drivers/uart.c ****  */
  15:src/drivers/uart.c **** 
  16:src/drivers/uart.c **** #include "stm32f1xx.h"
  17:src/drivers/uart.c **** #include "system_stm32f1xx.h"
  18:src/drivers/uart.c **** #include "uart.h"
  19:src/drivers/uart.c **** 
  20:src/drivers/uart.c **** #define Perpher_CLK 72000000
  21:src/drivers/uart.c **** #define Baudrate 115200
  22:src/drivers/uart.c **** 
  23:src/drivers/uart.c **** /*
  24:src/drivers/uart.c **** static uint16_t compute_uart_bd(uint32_t PeriphClk, uint32_t BaudRate)
  25:src/drivers/uart.c **** {
  26:src/drivers/uart.c **** 	return ((PeriphClk + (BaudRate/2U))/BaudRate);
  27:src/drivers/uart.c **** }
  28:src/drivers/uart.c **** */
  29:src/drivers/uart.c **** 
  30:src/drivers/uart.c **** static uint16_t compute_uart_bd(uint32_t PeriphClk, uint32_t BaudRate)
  31:src/drivers/uart.c **** {
ARM GAS  /tmp/ccu058E1.s 			page 2


  32:src/drivers/uart.c **** 	uint32_t usartdiv_mult100 = (25 * PeriphClk) / (4 * BaudRate); // 100 * USARTDIV
  33:src/drivers/uart.c **** 	uint32_t mantissa = usartdiv_mult100 / 100;
  34:src/drivers/uart.c **** 	uint32_t fraction = ((usartdiv_mult100 - (mantissa * 100)) * 16 + 50) / 100;
  35:src/drivers/uart.c **** 	return (mantissa << 4) | (fraction & 0x0F);
  36:src/drivers/uart.c **** }
  37:src/drivers/uart.c **** 
  38:src/drivers/uart.c **** static void uart_set_baudrate(USART_TypeDef *USARTx, uint32_t PeriphClk, uint32_t BaudRate)
  39:src/drivers/uart.c **** {
  40:src/drivers/uart.c **** 	USARTx->BRR = compute_uart_bd(PeriphClk, BaudRate);
  41:src/drivers/uart.c **** }
  42:src/drivers/uart.c **** 
  43:src/drivers/uart.c **** void uart1_write(int ch)
  44:src/drivers/uart.c **** {
  27              		.loc 1 44 1 view -0
  28              		.cfi_startproc
  29              		@ args = 0, pretend = 0, frame = 0
  30              		@ frame_needed = 0, uses_anonymous_args = 0
  31              		@ link register save eliminated.
  45:src/drivers/uart.c **** 	/*Make sure the transmit data register is empty*/
  46:src/drivers/uart.c **** 	while (!(USART1->SR & USART_SR_TXE))
  32              		.loc 1 46 2 view .LVU1
  33              		.loc 1 46 17 is_stmt 0 discriminator 1 view .LVU2
  34 0000 034B     		ldr	r3, .L5
  35              	.L2:
  47:src/drivers/uart.c **** 	{
  48:src/drivers/uart.c **** 	}
  36              		.loc 1 48 2 is_stmt 1 view .LVU3
  46:src/drivers/uart.c **** 	{
  37              		.loc 1 46 9 discriminator 1 view .LVU4
  46:src/drivers/uart.c **** 	{
  38              		.loc 1 46 17 is_stmt 0 discriminator 1 view .LVU5
  39 0002 1A68     		ldr	r2, [r3]
  46:src/drivers/uart.c **** 	{
  40              		.loc 1 46 9 discriminator 1 view .LVU6
  41 0004 1206     		lsls	r2, r2, #24
  42 0006 FCD5     		bpl	.L2
  49:src/drivers/uart.c **** 
  50:src/drivers/uart.c **** 	/*Write to transmit data register*/
  51:src/drivers/uart.c **** 	USART1->DR = (ch & 0xFF);
  43              		.loc 1 51 2 is_stmt 1 view .LVU7
  44              		.loc 1 51 19 is_stmt 0 view .LVU8
  45 0008 C0B2     		uxtb	r0, r0
  46              	.LVL1:
  47              		.loc 1 51 13 view .LVU9
  48 000a 5860     		str	r0, [r3, #4]
  52:src/drivers/uart.c **** }
  49              		.loc 1 52 1 view .LVU10
  50 000c 7047     		bx	lr
  51              	.L6:
  52 000e 00BF     		.align	2
  53              	.L5:
  54 0010 00380140 		.word	1073821696
  55              		.cfi_endproc
  56              	.LFE65:
  57              		.size	uart1_write, .-uart1_write
  58              		.align	1
  59              		.global	uart1_read
ARM GAS  /tmp/ccu058E1.s 			page 3


  60              		.syntax unified
  61              		.thumb
  62              		.thumb_func
  63              		.type	uart1_read, %function
  64              	uart1_read:
  65              	.LFB66:
  53:src/drivers/uart.c **** 
  54:src/drivers/uart.c **** char uart1_read(void)
  55:src/drivers/uart.c **** {
  66              		.loc 1 55 1 is_stmt 1 view -0
  67              		.cfi_startproc
  68              		@ args = 0, pretend = 0, frame = 0
  69              		@ frame_needed = 0, uses_anonymous_args = 0
  70              		@ link register save eliminated.
  56:src/drivers/uart.c **** 
  57:src/drivers/uart.c **** 	while (!(USART1->SR & USART_SR_RXNE))
  71              		.loc 1 57 2 view .LVU12
  72              		.loc 1 57 17 is_stmt 0 discriminator 1 view .LVU13
  73 0014 034B     		ldr	r3, .L11
  74              	.L8:
  58:src/drivers/uart.c **** 	{
  59:src/drivers/uart.c **** 	}
  75              		.loc 1 59 2 is_stmt 1 view .LVU14
  57:src/drivers/uart.c **** 	{
  76              		.loc 1 57 9 discriminator 1 view .LVU15
  57:src/drivers/uart.c **** 	{
  77              		.loc 1 57 17 is_stmt 0 discriminator 1 view .LVU16
  78 0016 1A68     		ldr	r2, [r3]
  57:src/drivers/uart.c **** 	{
  79              		.loc 1 57 9 discriminator 1 view .LVU17
  80 0018 9206     		lsls	r2, r2, #26
  81 001a FCD5     		bpl	.L8
  60:src/drivers/uart.c **** 	return USART1->DR;
  82              		.loc 1 60 2 is_stmt 1 view .LVU18
  83              		.loc 1 60 15 is_stmt 0 view .LVU19
  84 001c 5868     		ldr	r0, [r3, #4]
  61:src/drivers/uart.c **** }
  85              		.loc 1 61 1 view .LVU20
  86 001e C0B2     		uxtb	r0, r0
  87 0020 7047     		bx	lr
  88              	.L12:
  89 0022 00BF     		.align	2
  90              	.L11:
  91 0024 00380140 		.word	1073821696
  92              		.cfi_endproc
  93              	.LFE66:
  94              		.size	uart1_read, .-uart1_read
  95              		.align	1
  96              		.global	uart1_init
  97              		.syntax unified
  98              		.thumb
  99              		.thumb_func
 100              		.type	uart1_init, %function
 101              	uart1_init:
 102              	.LFB67:
  62:src/drivers/uart.c **** 
  63:src/drivers/uart.c **** int uart1_init(void)
ARM GAS  /tmp/ccu058E1.s 			page 4


  64:src/drivers/uart.c **** {
 103              		.loc 1 64 1 is_stmt 1 view -0
 104              		.cfi_startproc
 105              		@ args = 0, pretend = 0, frame = 0
 106              		@ frame_needed = 0, uses_anonymous_args = 0
 107              		@ link register save eliminated.
  65:src/drivers/uart.c **** 
  66:src/drivers/uart.c **** 	/*UART1 Pin configures*/
  67:src/drivers/uart.c **** 
  68:src/drivers/uart.c **** 	// enable clock access to GPIOA
  69:src/drivers/uart.c **** 	RCC->APB2ENR |= RCC_APB2ENR_IOPAEN;
 108              		.loc 1 69 2 view .LVU22
 109              		.loc 1 69 5 is_stmt 0 view .LVU23
 110 0028 1E4A     		ldr	r2, .L14
  70:src/drivers/uart.c **** 	// Enable clock access to alternate function
  71:src/drivers/uart.c **** 	RCC->APB2ENR |= RCC_APB2ENR_AFIOEN;
  72:src/drivers/uart.c **** 
  73:src/drivers/uart.c **** 	/*Confgiure PA9 as output maximum speed to 50MHz
  74:src/drivers/uart.c **** 	 * and alternate output push-pull mode*/
  75:src/drivers/uart.c **** 	GPIOA->CRH |= GPIO_CRH_MODE9;
  76:src/drivers/uart.c **** 
  77:src/drivers/uart.c **** 	GPIOA->CRH |= GPIO_CRH_CNF9_1;
  78:src/drivers/uart.c **** 	GPIOA->CRH &= ~GPIO_CRH_CNF9_0;
  79:src/drivers/uart.c **** 
  80:src/drivers/uart.c **** 	// configure PA10 for input
  81:src/drivers/uart.c **** 
  82:src/drivers/uart.c **** 	GPIOA->CRH &= ~(GPIO_CRH_MODE10);
  83:src/drivers/uart.c **** 
  84:src/drivers/uart.c **** 	GPIOA->CRH |= GPIO_CRH_CNF10_0;
  85:src/drivers/uart.c **** 	GPIOA->CRH &= ~GPIO_CRH_CNF10_1;
  86:src/drivers/uart.c **** 
  87:src/drivers/uart.c **** 	/*Don't remap the pins*/
  88:src/drivers/uart.c **** 	AFIO->MAPR &= ~AFIO_MAPR_USART1_REMAP;
  89:src/drivers/uart.c **** 
  90:src/drivers/uart.c **** 	// enable clock access to USART1
  91:src/drivers/uart.c **** 
  92:src/drivers/uart.c **** 	RCC->APB2ENR |= RCC_APB2ENR_USART1EN;
  93:src/drivers/uart.c **** 
  94:src/drivers/uart.c **** 	// Transmit Enable
  95:src/drivers/uart.c **** 	USART1->CR1 |= USART_CR1_TE;
  96:src/drivers/uart.c **** 	// Enable reciever
  97:src/drivers/uart.c **** 	USART1->CR1 |= USART_CR1_RE;
  98:src/drivers/uart.c **** 	/*Set baudrate */
  99:src/drivers/uart.c **** 	uart_set_baudrate(USART1, Perpher_CLK, Baudrate);
 100:src/drivers/uart.c **** 	// Enable UART
 101:src/drivers/uart.c **** 	USART1->CR1 |= USART_CR1_UE;
 102:src/drivers/uart.c **** 	return 0;
 103:src/drivers/uart.c **** }
 111              		.loc 1 103 1 view .LVU24
 112 002a 0020     		movs	r0, #0
  69:src/drivers/uart.c **** 	// Enable clock access to alternate function
 113              		.loc 1 69 5 view .LVU25
 114 002c 9369     		ldr	r3, [r2, #24]
  69:src/drivers/uart.c **** 	// Enable clock access to alternate function
 115              		.loc 1 69 15 view .LVU26
 116 002e 43F00403 		orr	r3, r3, #4
 117 0032 9361     		str	r3, [r2, #24]
ARM GAS  /tmp/ccu058E1.s 			page 5


  71:src/drivers/uart.c **** 
 118              		.loc 1 71 2 is_stmt 1 view .LVU27
  71:src/drivers/uart.c **** 
 119              		.loc 1 71 5 is_stmt 0 view .LVU28
 120 0034 9369     		ldr	r3, [r2, #24]
  71:src/drivers/uart.c **** 
 121              		.loc 1 71 15 view .LVU29
 122 0036 43F00103 		orr	r3, r3, #1
 123 003a 9361     		str	r3, [r2, #24]
  75:src/drivers/uart.c **** 
 124              		.loc 1 75 2 is_stmt 1 view .LVU30
  75:src/drivers/uart.c **** 
 125              		.loc 1 75 7 is_stmt 0 view .LVU31
 126 003c 1A4B     		ldr	r3, .L14+4
 127 003e 5968     		ldr	r1, [r3, #4]
  75:src/drivers/uart.c **** 
 128              		.loc 1 75 13 view .LVU32
 129 0040 41F03001 		orr	r1, r1, #48
 130 0044 5960     		str	r1, [r3, #4]
  77:src/drivers/uart.c **** 	GPIOA->CRH &= ~GPIO_CRH_CNF9_0;
 131              		.loc 1 77 2 is_stmt 1 view .LVU33
  77:src/drivers/uart.c **** 	GPIOA->CRH &= ~GPIO_CRH_CNF9_0;
 132              		.loc 1 77 7 is_stmt 0 view .LVU34
 133 0046 5968     		ldr	r1, [r3, #4]
  77:src/drivers/uart.c **** 	GPIOA->CRH &= ~GPIO_CRH_CNF9_0;
 134              		.loc 1 77 13 view .LVU35
 135 0048 41F08001 		orr	r1, r1, #128
 136 004c 5960     		str	r1, [r3, #4]
  78:src/drivers/uart.c **** 
 137              		.loc 1 78 2 is_stmt 1 view .LVU36
  78:src/drivers/uart.c **** 
 138              		.loc 1 78 7 is_stmt 0 view .LVU37
 139 004e 5968     		ldr	r1, [r3, #4]
  78:src/drivers/uart.c **** 
 140              		.loc 1 78 13 view .LVU38
 141 0050 21F04001 		bic	r1, r1, #64
 142 0054 5960     		str	r1, [r3, #4]
  82:src/drivers/uart.c **** 
 143              		.loc 1 82 2 is_stmt 1 view .LVU39
  82:src/drivers/uart.c **** 
 144              		.loc 1 82 7 is_stmt 0 view .LVU40
 145 0056 5968     		ldr	r1, [r3, #4]
  82:src/drivers/uart.c **** 
 146              		.loc 1 82 13 view .LVU41
 147 0058 21F44071 		bic	r1, r1, #768
 148 005c 5960     		str	r1, [r3, #4]
  84:src/drivers/uart.c **** 	GPIOA->CRH &= ~GPIO_CRH_CNF10_1;
 149              		.loc 1 84 2 is_stmt 1 view .LVU42
  84:src/drivers/uart.c **** 	GPIOA->CRH &= ~GPIO_CRH_CNF10_1;
 150              		.loc 1 84 7 is_stmt 0 view .LVU43
 151 005e 5968     		ldr	r1, [r3, #4]
  84:src/drivers/uart.c **** 	GPIOA->CRH &= ~GPIO_CRH_CNF10_1;
 152              		.loc 1 84 13 view .LVU44
 153 0060 41F48061 		orr	r1, r1, #1024
 154 0064 5960     		str	r1, [r3, #4]
  85:src/drivers/uart.c **** 
 155              		.loc 1 85 2 is_stmt 1 view .LVU45
ARM GAS  /tmp/ccu058E1.s 			page 6


  85:src/drivers/uart.c **** 
 156              		.loc 1 85 7 is_stmt 0 view .LVU46
 157 0066 5968     		ldr	r1, [r3, #4]
  85:src/drivers/uart.c **** 
 158              		.loc 1 85 13 view .LVU47
 159 0068 21F40061 		bic	r1, r1, #2048
 160 006c 5960     		str	r1, [r3, #4]
  88:src/drivers/uart.c **** 
 161              		.loc 1 88 2 is_stmt 1 view .LVU48
  88:src/drivers/uart.c **** 
 162              		.loc 1 88 6 is_stmt 0 view .LVU49
 163 006e 0F49     		ldr	r1, .L14+8
 164 0070 4B68     		ldr	r3, [r1, #4]
  88:src/drivers/uart.c **** 
 165              		.loc 1 88 13 view .LVU50
 166 0072 23F00403 		bic	r3, r3, #4
 167 0076 4B60     		str	r3, [r1, #4]
  92:src/drivers/uart.c **** 
 168              		.loc 1 92 2 is_stmt 1 view .LVU51
  92:src/drivers/uart.c **** 
 169              		.loc 1 92 5 is_stmt 0 view .LVU52
 170 0078 9369     		ldr	r3, [r2, #24]
  92:src/drivers/uart.c **** 
 171              		.loc 1 92 15 view .LVU53
 172 007a 43F48043 		orr	r3, r3, #16384
 173 007e 9361     		str	r3, [r2, #24]
  95:src/drivers/uart.c **** 	// Enable reciever
 174              		.loc 1 95 2 is_stmt 1 view .LVU54
  95:src/drivers/uart.c **** 	// Enable reciever
 175              		.loc 1 95 8 is_stmt 0 view .LVU55
 176 0080 0B4B     		ldr	r3, .L14+12
 177 0082 DA68     		ldr	r2, [r3, #12]
  95:src/drivers/uart.c **** 	// Enable reciever
 178              		.loc 1 95 14 view .LVU56
 179 0084 42F00802 		orr	r2, r2, #8
 180 0088 DA60     		str	r2, [r3, #12]
  97:src/drivers/uart.c **** 	/*Set baudrate */
 181              		.loc 1 97 2 is_stmt 1 view .LVU57
  97:src/drivers/uart.c **** 	/*Set baudrate */
 182              		.loc 1 97 8 is_stmt 0 view .LVU58
 183 008a DA68     		ldr	r2, [r3, #12]
  97:src/drivers/uart.c **** 	/*Set baudrate */
 184              		.loc 1 97 14 view .LVU59
 185 008c 42F00402 		orr	r2, r2, #4
 186 0090 DA60     		str	r2, [r3, #12]
  99:src/drivers/uart.c **** 	// Enable UART
 187              		.loc 1 99 2 is_stmt 1 view .LVU60
 188              	.LBB6:
 189              	.LBI6:
  38:src/drivers/uart.c **** {
 190              		.loc 1 38 13 view .LVU61
 191              	.LVL2:
 192              	.LBB7:
  40:src/drivers/uart.c **** }
 193              		.loc 1 40 2 view .LVU62
  40:src/drivers/uart.c **** }
 194              		.loc 1 40 14 is_stmt 0 discriminator 1 view .LVU63
ARM GAS  /tmp/ccu058E1.s 			page 7


 195 0092 40F27122 		movw	r2, #625
 196 0096 9A60     		str	r2, [r3, #8]
 197              	.LVL3:
  40:src/drivers/uart.c **** }
 198              		.loc 1 40 14 discriminator 1 view .LVU64
 199              	.LBE7:
 200              	.LBE6:
 101:src/drivers/uart.c **** 	return 0;
 201              		.loc 1 101 2 is_stmt 1 view .LVU65
 101:src/drivers/uart.c **** 	return 0;
 202              		.loc 1 101 8 is_stmt 0 view .LVU66
 203 0098 DA68     		ldr	r2, [r3, #12]
 101:src/drivers/uart.c **** 	return 0;
 204              		.loc 1 101 14 view .LVU67
 205 009a 42F40052 		orr	r2, r2, #8192
 206 009e DA60     		str	r2, [r3, #12]
 102:src/drivers/uart.c **** }
 207              		.loc 1 102 2 is_stmt 1 view .LVU68
 208              		.loc 1 103 1 is_stmt 0 view .LVU69
 209 00a0 7047     		bx	lr
 210              	.L15:
 211 00a2 00BF     		.align	2
 212              	.L14:
 213 00a4 00100240 		.word	1073876992
 214 00a8 00080140 		.word	1073809408
 215 00ac 00000140 		.word	1073807360
 216 00b0 00380140 		.word	1073821696
 217              		.cfi_endproc
 218              	.LFE67:
 219              		.size	uart1_init, .-uart1_init
 220              	.Letext0:
 221              		.file 2 "/opt/arm-none-eabi/arm-none-eabi/include/machine/_default_types.h"
 222              		.file 3 "/opt/arm-none-eabi/arm-none-eabi/include/sys/_stdint.h"
 223              		.file 4 "common/include/stm32f103xb.h"